gpasm-0.13.7 beta               rfm12.asm   8-8-2010  12:38:54           PAGE  1


LOC  OBJECT CODE     LINE SOURCE TEXT
  VALUE
 
               00001 ;--------------------------------------------------------
               00002 ; File Created by SDCC : free open source ANSI-C Compiler
               00003 ; Version 2.9.0 #5416 (Jul 24 2010) (UNIX)
               00004 ; This file was generated Sun Aug  8 12:38:54 2010
               00005 ;--------------------------------------------------------
               00006 ; PIC port for the 14-bit core
               00007 ;--------------------------------------------------------
               00008         .file   "rfm12.c"
               00009         list    p=16f628a
               00010         radix dec
               00011         include "p16f628a.inc"
               00001         LIST
               00002 ; P16F628A.INC  Standard Header File, Version 1.10    Microchip Technology, Inc.
               00265         LIST
               00266 
               00012 ;--------------------------------------------------------
               00013 ; external declarations
               00014 ;--------------------------------------------------------
               00015         extern  _delay_ms
               00016         extern  _delay_s
               00017         extern  _eeprom_write
               00018         extern  _eeprom_read
               00019         extern  _rfm12_init_tx
               00020         extern  _rfm12_init_rx
               00021         extern  _CCP1CON_bits
               00022         extern  _CMCON_bits
               00023         extern  _EECON1_bits
               00024         extern  _INTCON_bits
               00025         extern  _OPTION_REG_bits
               00026         extern  _PCON_bits
               00027         extern  _PIE1_bits
               00028         extern  _PIR1_bits
               00029         extern  _PORTA_bits
               00030         extern  _PORTB_bits
               00031         extern  _RCSTA_bits
               00032         extern  _STATUS_bits
               00033         extern  _T1CON_bits
               00034         extern  _T2CON_bits
               00035         extern  _TRISA_bits
               00036         extern  _TRISB_bits
               00037         extern  _TXSTA_bits
               00038         extern  _VRCON_bits
               00039         extern  _INDF
               00040         extern  _TMR0
               00041         extern  _PCL
               00042         extern  _STATUS
               00043         extern  _FSR
               00044         extern  _PORTA
               00045         extern  _PORTB
               00046         extern  _PCLATH
               00047         extern  _INTCON
               00048         extern  _PIR1
               00049         extern  _TMR1L
               00050         extern  _TMR1H
gpasm-0.13.7 beta               rfm12.asm   8-8-2010  12:38:54           PAGE  2


LOC  OBJECT CODE     LINE SOURCE TEXT
  VALUE
 
               00051         extern  _T1CON
               00052         extern  _TMR2
               00053         extern  _T2CON
               00054         extern  _CCPR1L
               00055         extern  _CCPR1H
               00056         extern  _CCP1CON
               00057         extern  _RCSTA
               00058         extern  _TXREG
               00059         extern  _RCREG
               00060         extern  _CMCON
               00061         extern  _OPTION_REG
               00062         extern  _TRISA
               00063         extern  _TRISB
               00064         extern  _PIE1
               00065         extern  _PCON
               00066         extern  _PR2
               00067         extern  _TXSTA
               00068         extern  _SPBRG
               00069         extern  _EEDATA
               00070         extern  _EEADR
               00071         extern  _EECON1
               00072         extern  _EECON2
               00073         extern  _VRCON
               00074         extern  __gptrget1
               00075         extern  __gptrput1
               00076 
               00077         extern PSAVE
               00078         extern SSAVE
               00079         extern WSAVE
               00080         extern STK12
               00081         extern STK11
               00082         extern STK10
               00083         extern STK09
               00084         extern STK08
               00085         extern STK07
               00086         extern STK06
               00087         extern STK05
               00088         extern STK04
               00089         extern STK03
               00090         extern STK02
               00091         extern STK01
               00092         extern STK00
               00093 ;--------------------------------------------------------
               00094 ; global declarations
               00095 ;--------------------------------------------------------
               00096         global  _rfm12_spi16
               00097         global  _rfm12_wait
               00098         global  _rfm12_dis_rx
               00099         global  _rfm12_ena_rx
               00100         global  _rfm12_rcv_msg
               00101         global  _rfm12_snd_msg
               00102         global  _rfm12_init
               00103 
               00104 ;--------------------------------------------------------
gpasm-0.13.7 beta               rfm12.asm   8-8-2010  12:38:54           PAGE  3


LOC  OBJECT CODE     LINE SOURCE TEXT
  VALUE
 
               00105 ; global definitions
               00106 ;--------------------------------------------------------
               00107 ;--------------------------------------------------------
               00108 ; absolute symbol definitions
               00109 ;--------------------------------------------------------
               00110 ;--------------------------------------------------------
               00111 ; compiler-defined variables
               00112 ;--------------------------------------------------------
               00113 UDL_rfm12_0     udata
               00114 r0x101B res     1
               00115 r0x101A res     1
               00116 r0x1019 res     1
               00117 r0x101D res     1
               00118 r0x101C res     1
               00119 r0x101E res     1
               00120 r0x101F res     1
               00121 r0x1020 res     1
               00122 r0x1021 res     1
               00123 r0x1022 res     1
               00124 r0x1024 res     1
               00125 r0x1023 res     1
               00126 r0x1027 res     1
               00127 r0x100D res     1
               00128 r0x100C res     1
               00129 r0x100B res     1
               00130 r0x100F res     1
               00131 r0x100E res     1
               00132 r0x1010 res     1
               00133 r0x1011 res     1
               00134 r0x1012 res     1
               00135 r0x1013 res     1
               00136 r0x1014 res     1
               00137 r0x1015 res     1
               00138 r0x1016 res     1
               00139 r0x1017 res     1
               00140 r0x1018 res     1
               00141 r0x1007 res     1
               00142 r0x1006 res     1
               00143 r0x1008 res     1
               00144 r0x1009 res     1
               00145 r0x100A res     1
               00146 r0x1001 res     1
               00147 r0x1000 res     1
               00148 r0x1002 res     1
               00149 r0x1003 res     1
               00150 r0x1004 res     1
               00151 r0x1005 res     1
               00152 ;--------------------------------------------------------
               00153 ; initialized data
               00154 ;--------------------------------------------------------
               00155 ;--------------------------------------------------------
               00156 ; overlayable items in internal ram 
               00157 ;--------------------------------------------------------
               00158 ;       udata_ovr
gpasm-0.13.7 beta               rfm12.asm   8-8-2010  12:38:54           PAGE  4


LOC  OBJECT CODE     LINE SOURCE TEXT
  VALUE
 
               00159 ;--------------------------------------------------------
               00160 ; code
               00161 ;--------------------------------------------------------
               00162 code_rfm12      code
               00163 ;***
               00164 ;  pBlock Stats: dbName = C
               00165 ;***
               00166 ;entry:  _rfm12_spi16   ;Function start
               00167 ; 2 exit points
               00168 ;has an exit
               00169 ;7 compiler assigned registers:
               00170 ;   r0x1000
               00171 ;   STK00
               00172 ;   r0x1001
               00173 ;   r0x1002
               00174 ;   r0x1003
               00175 ;   r0x1004
               00176 ;   r0x1005
               00177 ;; Starting pCode block
               00178 ;; gen.c:2261:resultRemat *{*
               00179 ;; gen.c:2597:genLabel *{*
               00180 ;; ***  genLabel  2600
               00181 ;; gen.c:2261:resultRemat *{*
               00182 ;; gen.c:2283:genFunction *{*
               00183 ;; ***  genFunction  2285 curr label offset=91previous max_key=23 
0000 00184 _rfm12_spi16    ;Function start
               00185 ; 2 exit points
               00186 ;; gen.c:2261:resultRemat *{*
               00187 ;; gen.c:6739:genReceive *{*
               00188 ;; ***  genReceive  6740
               00189 ;;      721 register type nRegs=2
               00190 ;; gen.c:1866:assignResultValue *{*
               00191 ;; ***  assignResultValue  1868
               00192 ;;      line = 1870 result -=-, size=0, left AOP_REG=r0x106A, size=2, right -=-, size=0
               00193 ; >>> gen.c:1367:movwf
               00194 ;;      1109 rIdx = r0x106B 
               00195         .line   225; "rfm12.c"  unsigned int rfm12_spi16(unsigned int dout){
0000 0000 0000 00196         BANKSEL r0x1000
0002 0080      00197         MOVWF   r0x1000
               00198 ; >>> gen.c:1393:get_returnvalue
               00199 ;; ***  popRegFromIdx,1043  , rIdx=0x7f
0003 0800      00200         MOVF    STK00,W
               00201 ; >>> gen.c:1367:movwf
               00202 ;;      1109 rIdx = r0x106A 
0004 0080      00203         MOVWF   r0x1001
               00204 ;; gen.c:2261:resultRemat *{*
               00205 ;; gen.c:6332:genAssign *{*
               00206 ;; ***  genAssign  6333
               00207 ;;      721 register type nRegs=2
               00208 ;;      line = 6342 result AOP_REG=r0x106C, size=2, left -=-, size=0, right AOP_LIT=0x00, size=2
               00209 ;; ***  genAssign  6434
               00210 ; >>> gen.c:6443:genAssign
               00211 ;;      1109 rIdx = r0x106C 
               00212         .line   226; "rfm12.c"  unsigned int dsdo=0;
gpasm-0.13.7 beta               rfm12.asm   8-8-2010  12:38:54           PAGE  5


LOC  OBJECT CODE     LINE SOURCE TEXT
  VALUE
 
0005 0180      00213         CLRF    r0x1002
               00214 ;; ***  genAssign  6434
               00215 ; >>> gen.c:6443:genAssign
               00216 ;;      1109 rIdx = r0x106D 
0006 0180      00217         CLRF    r0x1003
               00218 ;; gen.c:2261:resultRemat *{*
               00219 ;; gen.c:2261:resultRemat *{*
               00220 ;; gen.c:6117:genPointerSet *{*
               00221 ;; ***  genPointerSet  6118
               00222 ;; gen.c:5945:genNearPointerSet *{*
               00223 ;; ***  genNearPointerSet  5946
               00224 ;;      641
               00225 ;;      aopForRemat 425
               00226 ;;      446: rname _PORTB_bits, val 0, const = 0
               00227 ;; ***  genNearPointerSet  5963
               00228 ;;      858: aopGet AOP_PCODE type PO_IMMEDIATE
               00229 ;;      _PORTB_bits
               00230 ;;      line = 5965 result AOP_PCODE=_PORTB_bits, size=2, left -=-, size=0, right AOP_LIT=0x00, size=1
               00231 ;; gen.c:5694:genPackBits *{*
               00232 ;; ***  genPackBits  5695
               00233 ;;      858: aopGet AOP_PCODE type PO_IMMEDIATE
               00234 ;;      _PORTB_bits
               00235 ; >>> gen.c:5720:genPackBits
               00236         .line   229; "rfm12.c"  nSEL=0;               // activate rfm12
0007 0000 0000 00237         BANKSEL _PORTB_bits
0009 1180      00238         BCF     _PORTB_bits,3
               00239 ;; gen.c:2261:resultRemat *{*
               00240 ;; gen.c:6332:genAssign *{*
               00241 ;; ***  genAssign  6333
               00242 ;;      721 register type nRegs=1
               00243 ;;      line = 6342 result AOP_REG=r0x106E, size=1, left -=-, size=0, right AOP_LIT=0x00, size=1
               00244 ;; ***  genAssign  6434
               00245 ; >>> gen.c:6443:genAssign
               00246 ;;      1109 rIdx = r0x106E 
               00247         .line   230; "rfm12.c"  for(i=0;i<16;i++){    // bit by bit...
000A 0000 0000 00248         BANKSEL r0x1004
000C 0180      00249         CLRF    r0x1004
               00250 ;; gen.c:2261:resultRemat *{*
               00251 ;; gen.c:2597:genLabel *{*
               00252 ;; ***  genLabel  2600
               00253 ;; gen.c:2261:resultRemat *{*
               00254 ;; gen.c:3504:ifxForOp *{*
               00255 ;; ***  ifxForOp  3506
               00256 ;; gen.c:3357:genCmpLt *{*
               00257 ;; ***  genCmpLt  3358
               00258 ;;      721 register type nRegs=1
               00259 ;; gen.c:3126:genCmp *{*
               00260 ;unsigned compare: left < lit(0x10=16), size=1
               00261 ; >>> gen.c:3099:pic14_mov2w_regOrLit
000D 00262 _00227_DS_
000D 3010      00263         MOVLW   0x10
               00264 ; >>> gen.c:3234:genCmp
               00265 ;;      1109 rIdx = r0x106E 
000E 0000 0000 00266         BANKSEL r0x1004
gpasm-0.13.7 beta               rfm12.asm   8-8-2010  12:38:54           PAGE  6


LOC  OBJECT CODE     LINE SOURCE TEXT
  VALUE
 
0010 0200      00267         SUBWF   r0x1004,W
               00268 ;; gen.c:3073:genSkipc *{*
               00269 ; >>> gen.c:3078:genSkipc
0011 1803      00270         BTFSC   STATUS,0
               00271 ; >>> gen.c:3082:genSkipc
               00272 ;; ***  popGetLabel  key=12, label offset 118
0012 2800      00273         GOTO    _00230_DS_
               00274 ;genSkipc:3083: created from rifx:0xbf877470
               00275 ;; gen.c:2261:resultRemat *{*
               00276 ;; gen.c:2261:resultRemat *{*
               00277 ;; gen.c:3504:ifxForOp *{*
               00278 ;; ***  ifxForOp  3506
               00279 ;; gen.c:3719:genAnd *{*
               00280 ;; ***  genAnd  3720
               00281 ;;      721 register type nRegs=2
               00282 ;;      line = 3754 result AOP_CRY=0x00, size=0, left AOP_REG=r0x106A, size=2, right AOP_LIT=0x00, size=2
               00283 ;; gen.c:3646:isLiteralBit *{*
               00284 ;; ***  isLiteralBit  3647
               00285 ; >>> gen.c:3823:genAnd
               00286         .line   231; "rfm12.c"  if(dout&0x8000){    // is data out lsb 1???
0013 1F80      00287         BTFSS   r0x1000,7
               00288 ; >>> gen.c:3824:genAnd
               00289 ;; ***  popGetLabel  key=2, label offset 118
0014 2800      00290         GOTO    _00220_DS_
               00291 ;; gen.c:2261:resultRemat *{*
               00292 ;; gen.c:2261:resultRemat *{*
               00293 ;; gen.c:2261:resultRemat *{*
               00294 ;; gen.c:6117:genPointerSet *{*
               00295 ;; ***  genPointerSet  6118
               00296 ;; gen.c:5945:genNearPointerSet *{*
               00297 ;; ***  genNearPointerSet  5946
               00298 ;;      641
               00299 ;;      aopForRemat 425
               00300 ;;      446: rname _PORTB_bits, val 0, const = 0
               00301 ;; ***  genNearPointerSet  5963
               00302 ;;      858: aopGet AOP_PCODE type PO_IMMEDIATE
               00303 ;;      _PORTB_bits
               00304 ;;      line = 5965 result AOP_PCODE=_PORTB_bits, size=2, left -=-, size=0, right AOP_LIT=0x01, size=1
               00305 ;; gen.c:5694:genPackBits *{*
               00306 ;; ***  genPackBits  5695
               00307 ;;      858: aopGet AOP_PCODE type PO_IMMEDIATE
               00308 ;;      _PORTB_bits
               00309 ; >>> gen.c:5720:genPackBits
               00310         .line   232; "rfm12.c"  SDO=1;            // yes, SDO high
0015 0000 0000 00311         BANKSEL _PORTB_bits
0017 1500      00312         BSF     _PORTB_bits,2
               00313 ;; gen.c:2261:resultRemat *{*
               00314 ;; gen.c:2614:genGoto *{*
               00315 ; >>> gen.c:2616:genGoto
               00316 ;; ***  popGetLabel  key=3, label offset 118
0018 2800      00317         GOTO    _00221_DS_
               00318 ;; gen.c:2261:resultRemat *{*
               00319 ;; gen.c:2597:genLabel *{*
               00320 ;; ***  genLabel  2600
gpasm-0.13.7 beta               rfm12.asm   8-8-2010  12:38:54           PAGE  7


LOC  OBJECT CODE     LINE SOURCE TEXT
  VALUE
 
               00321 ;; gen.c:2261:resultRemat *{*
               00322 ;; gen.c:2261:resultRemat *{*
               00323 ;; gen.c:6117:genPointerSet *{*
               00324 ;; ***  genPointerSet  6118
               00325 ;; gen.c:5945:genNearPointerSet *{*
               00326 ;; ***  genNearPointerSet  5946
               00327 ;;      641
               00328 ;;      aopForRemat 425
               00329 ;;      446: rname _PORTB_bits, val 0, const = 0
               00330 ;; ***  genNearPointerSet  5963
               00331 ;;      858: aopGet AOP_PCODE type PO_IMMEDIATE
               00332 ;;      _PORTB_bits
               00333 ;;      line = 5965 result AOP_PCODE=_PORTB_bits, size=2, left -=-, size=0, right AOP_LIT=0x00, size=1
               00334 ;; gen.c:5694:genPackBits *{*
               00335 ;; ***  genPackBits  5695
               00336 ;;      858: aopGet AOP_PCODE type PO_IMMEDIATE
               00337 ;;      _PORTB_bits
               00338 ; >>> gen.c:5720:genPackBits
0019 00339 _00220_DS_
               00340         .line   234; "rfm12.c"  SDO=0;            // no, SDO low
0019 0000 0000 00341         BANKSEL _PORTB_bits
001B 1100      00342         BCF     _PORTB_bits,2
               00343 ;; gen.c:2261:resultRemat *{*
               00344 ;; gen.c:2597:genLabel *{*
               00345 ;; ***  genLabel  2600
               00346 ;; gen.c:2261:resultRemat *{*
               00347 ;; gen.c:4988:genGenericShift *{*
               00348 ;; ***  genGenericShift  4992
               00349 ;;      721 register type nRegs=2
               00350 ;;      606
               00351 ; >>> gen.c:4780:shiftLeft_Left2ResultLit
001C 00352 _00221_DS_
               00353         .line   236; "rfm12.c"  dsdo<<=1;           // next bit of data in!
001C 1003      00354         BCF     STATUS,0
               00355 ; >>> gen.c:4783:shiftLeft_Left2ResultLit
               00356 ;;      1109 rIdx = r0x106C 
001D 0000 0000 00357         BANKSEL r0x1002
001F 0D80      00358         RLF     r0x1002,F
               00359 ; >>> gen.c:4783:shiftLeft_Left2ResultLit
               00360 ;;      1109 rIdx = r0x106D 
               00361         .line   237; "rfm12.c"  if(SDI){            // is SDI high (rfm12 has been received data)?
0020 0D80      00362         RLF     r0x1003,F
               00363         .line   238; "rfm12.c"  dsdo|=1;          // set corresponding bit of data in
0021 0000 0000 00364         BANKSEL _PORTB_bits
0023 1C80      00365         BTFSS   _PORTB_bits,1
0024 2800      00366         GOTO    _00001_DS_
               00367         .line   240; "rfm12.c"  SCK=1;              // positive edge of clk
0025 0000 0000 00368         BANKSEL r0x1002
0027 1400      00369         BSF     r0x1002,0
0028 00370 _00001_DS_
0028 0000 0000 00371         BANKSEL _PORTB_bits
002A 1600      00372         BSF     _PORTB_bits,4
               00373         .line   241; "rfm12.c"  dout<<=1;           // next bit of data out
002B 1003      00374         BCF     STATUS,0
gpasm-0.13.7 beta               rfm12.asm   8-8-2010  12:38:54           PAGE  8


LOC  OBJECT CODE     LINE SOURCE TEXT
  VALUE
 
               00375 ; >>> gen.c:4783:shiftLeft_Left2ResultLit
               00376 ;;      1109 rIdx = r0x106A 
002C 0000 0000 00377         BANKSEL r0x1001
002E 0D80      00378         RLF     r0x1001,F
               00379 ; >>> gen.c:4783:shiftLeft_Left2ResultLit
               00380 ;;      1109 rIdx = r0x106B 
002F 0D80      00381         RLF     r0x1000,F
               00382 ;; gen.c:2261:resultRemat *{*
               00383 ;; gen.c:6332:genAssign *{*
               00384 ;; ***  genAssign  6333
               00385 ;;      721 register type nRegs=1
               00386 ;;      line = 6342 result AOP_REG=r0x106F, size=1, left -=-, size=0, right AOP_LIT=0x01, size=1
               00387 ;; ***  genAssign  6434
               00388 ; >>> gen.c:6439:genAssign
               00389         .line   242; "rfm12.c"  delay_us(5);
0030 3001      00390         MOVLW   0x01
               00391 ; >>> gen.c:6441:genAssign
               00392 ;;      1109 rIdx = r0x106F 
0031 0080      00393         MOVWF   r0x1005
               00394 ;; gen.c:2261:resultRemat *{*
               00395 ;; gen.c:2597:genLabel *{*
               00396 ;; ***  genLabel  2600
               00397 ;; gen.c:2261:resultRemat *{*
               00398 ;; gen.c:3504:ifxForOp *{*
               00399 ;; ***  ifxForOp  3506
               00400 ;; gen.c:6695:genDjnz *{*
               00401 ;; ***  genDjnz  6696
               00402 ;;      721 register type nRegs=1
               00403 ; >>> gen.c:6726:genDjnz
               00404 ;;      1109 rIdx = r0x106F 
0032 00405 _00224_DS_
0032 0000 0000 00406         BANKSEL r0x1005
0034 0B80      00407         DECFSZ  r0x1005,F
               00408 ; >>> gen.c:6727:genDjnz
               00409 ;; ***  popGetLabel  key=6, label offset 118
0035 2800      00410         GOTO    _00224_DS_
               00411 ;; gen.c:2261:resultRemat *{*
               00412 ;; gen.c:2261:resultRemat *{*
               00413 ;; gen.c:2261:resultRemat *{*
               00414 ;; gen.c:6117:genPointerSet *{*
               00415 ;; ***  genPointerSet  6118
               00416 ;; gen.c:5945:genNearPointerSet *{*
               00417 ;; ***  genNearPointerSet  5946
               00418 ;;      641
               00419 ;;      aopForRemat 425
               00420 ;;      446: rname _PORTB_bits, val 0, const = 0
               00421 ;; ***  genNearPointerSet  5963
               00422 ;;      858: aopGet AOP_PCODE type PO_IMMEDIATE
               00423 ;;      _PORTB_bits
               00424 ;;      line = 5965 result AOP_PCODE=_PORTB_bits, size=2, left -=-, size=0, right AOP_LIT=0x00, size=1
               00425 ;; gen.c:5694:genPackBits *{*
               00426 ;; ***  genPackBits  5695
               00427 ;;      858: aopGet AOP_PCODE type PO_IMMEDIATE
               00428 ;;      _PORTB_bits
gpasm-0.13.7 beta               rfm12.asm   8-8-2010  12:38:54           PAGE  9


LOC  OBJECT CODE     LINE SOURCE TEXT
  VALUE
 
               00429 ; >>> gen.c:5720:genPackBits
               00430         .line   243; "rfm12.c"  SCK=0;              // negative edge of clk
0036 0000 0000 00431         BANKSEL _PORTB_bits
0038 1200      00432         BCF     _PORTB_bits,4
               00433 ;; gen.c:2261:resultRemat *{*
               00434 ;; ***  genPlus  547
               00435 ;; genarith.c:548:genPlus *{*
               00436 ;;      721 register type nRegs=1
               00437 ;;      606
               00438 ;;      line = 554 result AOP_REG=r0x106E, size=1, left AOP_REG=r0x106E, size=1, right AOP_LIT=0x01, size=1
               00439 ;; ***  pic14_getDataSize  1426
               00440 ;; genarith.c:142:genPlusIncr *{*
               00441 ;; ***  genPlusIncr  144
               00442 ;;      result AOP_REG, left AOP_REG, right AOP_LIT
               00443 ;;      genPlusIncr  156
               00444 ; >>> genarith.c:168:genPlusIncr
               00445 ;;      1109 rIdx = r0x106E 
               00446         .line   230; "rfm12.c"  for(i=0;i<16;i++){    // bit by bit...
0039 0000 0000 00447         BANKSEL r0x1004
003B 0A80      00448         INCF    r0x1004,F
               00449 ;; gen.c:2261:resultRemat *{*
               00450 ;; gen.c:2614:genGoto *{*
               00451 ; >>> gen.c:2616:genGoto
               00452 ;; ***  popGetLabel  key=9, label offset 118
003C 2800      00453         GOTO    _00227_DS_
               00454 ;; gen.c:2261:resultRemat *{*
               00455 ;; gen.c:2597:genLabel *{*
               00456 ;; ***  genLabel  2600
               00457 ;; gen.c:2261:resultRemat *{*
               00458 ;; gen.c:2261:resultRemat *{*
               00459 ;; gen.c:6117:genPointerSet *{*
               00460 ;; ***  genPointerSet  6118
               00461 ;; gen.c:5945:genNearPointerSet *{*
               00462 ;; ***  genNearPointerSet  5946
               00463 ;;      641
               00464 ;;      aopForRemat 425
               00465 ;;      446: rname _PORTB_bits, val 0, const = 0
               00466 ;; ***  genNearPointerSet  5963
               00467 ;;      858: aopGet AOP_PCODE type PO_IMMEDIATE
               00468 ;;      _PORTB_bits
               00469 ;;      line = 5965 result AOP_PCODE=_PORTB_bits, size=2, left -=-, size=0, right AOP_LIT=0x01, size=1
               00470 ;; gen.c:5694:genPackBits *{*
               00471 ;; ***  genPackBits  5695
               00472 ;;      858: aopGet AOP_PCODE type PO_IMMEDIATE
               00473 ;;      _PORTB_bits
               00474 ; >>> gen.c:5720:genPackBits
003D 00475 _00230_DS_
               00476         .line   245; "rfm12.c"  nSEL=1;               // deactivate rfm12
003D 0000 0000 00477         BANKSEL _PORTB_bits
003F 1580      00478         BSF     _PORTB_bits,3
               00479 ;; gen.c:2261:resultRemat *{*
               00480 ;; gen.c:2561:genRet *{*
               00481 ;; ***  genRet  2563
               00482 ;;      721 register type nRegs=2
gpasm-0.13.7 beta               rfm12.asm   8-8-2010  12:38:54           PAGE 10


LOC  OBJECT CODE     LINE SOURCE TEXT
  VALUE
 
               00483 ;; gen.c:1324:mov2w_op *{*
               00484 ;; ***  mov2w  1356  offset=0
               00485 ; >>> gen.c:1361:mov2w
               00486 ;;      1109 rIdx = r0x106C 
               00487         .line   246; "rfm12.c"  return dsdo;          // return data in
0040 0000 0000 00488         BANKSEL r0x1002
0042 0800      00489         MOVF    r0x1002,W
               00490 ; >>> gen.c:1387:pass_argument
               00491 ;; ***  popRegFromIdx,1043  , rIdx=0x7f
0043 0080      00492         MOVWF   STK00
               00493 ;; gen.c:1324:mov2w_op *{*
               00494 ;; ***  mov2w  1356  offset=1
               00495 ; >>> gen.c:1361:mov2w
               00496 ;;      1109 rIdx = r0x106D 
0044 0800      00497         MOVF    r0x1003,W
               00498 ;; gen.c:2261:resultRemat *{*
               00499 ;; gen.c:2597:genLabel *{*
               00500 ;; ***  genLabel  2600
               00501 ;; gen.c:2261:resultRemat *{*
               00502 ;; gen.c:2435:genEndFunction *{*
               00503 ;; ***  genEndFunction  2437
0045 0008      00504         RETURN  
               00505 ; exit point of _rfm12_spi16
               00506 
               00507 ;***
               00508 ;  pBlock Stats: dbName = C
               00509 ;***
               00510 ;entry:  _rfm12_wait    ;Function start
               00511 ; 2 exit points
               00512 ;has an exit
               00513 ;6 compiler assigned registers:
               00514 ;   r0x1006
               00515 ;   STK00
               00516 ;   r0x1007
               00517 ;   r0x1008
               00518 ;   r0x1009
               00519 ;   r0x100A
               00520 ;; Starting pCode block
               00521 ;; gen.c:2261:resultRemat *{*
               00522 ;; gen.c:2597:genLabel *{*
               00523 ;; ***  genLabel  2600
               00524 ;; gen.c:2261:resultRemat *{*
               00525 ;; gen.c:2283:genFunction *{*
               00526 ;; ***  genFunction  2285 curr label offset=87previous max_key=0 
0046 00527 _rfm12_wait     ;Function start
               00528 ; 2 exit points
               00529 ;; gen.c:2261:resultRemat *{*
               00530 ;; gen.c:6739:genReceive *{*
               00531 ;; ***  genReceive  6740
               00532 ;;      721 register type nRegs=2
               00533 ;; gen.c:1866:assignResultValue *{*
               00534 ;; ***  assignResultValue  1868
               00535 ;;      line = 1870 result -=-, size=0, left AOP_REG=r0x1065, size=2, right -=-, size=0
               00536 ; >>> gen.c:1367:movwf
gpasm-0.13.7 beta               rfm12.asm   8-8-2010  12:38:54           PAGE 11


LOC  OBJECT CODE     LINE SOURCE TEXT
  VALUE
 
               00537 ;;      1109 rIdx = r0x1066 
               00538         .line   203; "rfm12.c"  unsigned char rfm12_wait(unsigned int tout){
0046 0000 0000 00539         BANKSEL r0x1006
0048 0080      00540         MOVWF   r0x1006
               00541 ; >>> gen.c:1393:get_returnvalue
               00542 ;; ***  popRegFromIdx,1043  , rIdx=0x7f
0049 0800      00543         MOVF    STK00,W
               00544 ; >>> gen.c:1367:movwf
               00545 ;;      1109 rIdx = r0x1065 
004A 0080      00546         MOVWF   r0x1007
               00547 ;; gen.c:2261:resultRemat *{*
               00548 ;; gen.c:2261:resultRemat *{*
               00549 ;; gen.c:6117:genPointerSet *{*
               00550 ;; ***  genPointerSet  6118
               00551 ;; gen.c:5945:genNearPointerSet *{*
               00552 ;; ***  genNearPointerSet  5946
               00553 ;;      641
               00554 ;;      aopForRemat 425
               00555 ;;      446: rname _PORTB_bits, val 0, const = 0
               00556 ;; ***  genNearPointerSet  5963
               00557 ;;      858: aopGet AOP_PCODE type PO_IMMEDIATE
               00558 ;;      _PORTB_bits
               00559 ;;      line = 5965 result AOP_PCODE=_PORTB_bits, size=2, left -=-, size=0, right AOP_LIT=0x00, size=1
               00560 ;; gen.c:5694:genPackBits *{*
               00561 ;; ***  genPackBits  5695
               00562 ;;      858: aopGet AOP_PCODE type PO_IMMEDIATE
               00563 ;;      _PORTB_bits
               00564 ; >>> gen.c:5720:genPackBits
               00565         .line   206; "rfm12.c"  nSEL=0;
004B 0000 0000 00566         BANKSEL _PORTB_bits
004D 1180      00567         BCF     _PORTB_bits,3
               00568 ;; gen.c:2261:resultRemat *{*
               00569 ;; gen.c:6332:genAssign *{*
               00570 ;; ***  genAssign  6333
               00571 ;;      721 register type nRegs=2
               00572 ;;      line = 6342 result AOP_REG=r0x1067, size=2, left -=-, size=0, right AOP_LIT=0x00, size=2
               00573 ;; ***  genAssign  6434
               00574 ; >>> gen.c:6443:genAssign
               00575 ;;      1109 rIdx = r0x1067 
               00576         .line   207; "rfm12.c"  do{
004E 0000 0000 00577         BANKSEL r0x1008
0050 0180      00578         CLRF    r0x1008
               00579 ;; ***  genAssign  6434
               00580 ; >>> gen.c:6443:genAssign
               00581 ;;      1109 rIdx = r0x1068 
0051 0180      00582         CLRF    r0x1009
               00583 ;; gen.c:2261:resultRemat *{*
               00584 ;; gen.c:2597:genLabel *{*
               00585 ;; ***  genLabel  2600
               00586 ;; gen.c:2261:resultRemat *{*
               00587 ;; ***  genPlus  547
               00588 ;; genarith.c:548:genPlus *{*
               00589 ;;      721 register type nRegs=2
               00590 ;;      606
gpasm-0.13.7 beta               rfm12.asm   8-8-2010  12:38:54           PAGE 12


LOC  OBJECT CODE     LINE SOURCE TEXT
  VALUE
 
               00591 ;;      line = 554 result AOP_REG=r0x1067, size=2, left AOP_REG=r0x1067, size=2, right AOP_LIT=0x01, size=1
               00592 ;; ***  pic14_getDataSize  1426
               00593 ;; genarith.c:142:genPlusIncr *{*
               00594 ;; ***  genPlusIncr  144
               00595 ;;      result AOP_REG, left AOP_REG, right AOP_LIT
               00596 ;;      genPlusIncr  156
               00597 ; >>> genarith.c:168:genPlusIncr
               00598 ;;      1109 rIdx = r0x1067 
0052 00599 _00196_DS_
               00600         .line   208; "rfm12.c"  to++;
0052 0000 0000 00601         BANKSEL r0x1008
0054 0A80      00602         INCF    r0x1008,F
               00603 ; >>> genarith.c:172:genPlusIncr
0055 1903      00604         BTFSC   STATUS,2
               00605 ; >>> genarith.c:173:genPlusIncr
               00606 ;;      1109 rIdx = r0x1068 
0056 0A80      00607         INCF    r0x1009,F
               00608 ;; gen.c:2261:resultRemat *{*
               00609 ;; gen.c:6332:genAssign *{*
               00610 ;; ***  genAssign  6333
               00611 ;;      721 register type nRegs=1
               00612 ;;      line = 6342 result AOP_REG=r0x1069, size=1, left -=-, size=0, right AOP_LIT=0x21, size=1
               00613 ;; ***  genAssign  6434
               00614 ; >>> gen.c:6439:genAssign
               00615         .line   209; "rfm12.c"  delay_us(100);
0057 3021      00616         MOVLW   0x21
               00617 ; >>> gen.c:6441:genAssign
               00618 ;;      1109 rIdx = r0x1069 
0058 0080      00619         MOVWF   r0x100A
               00620 ;; gen.c:2261:resultRemat *{*
               00621 ;; gen.c:2597:genLabel *{*
               00622 ;; ***  genLabel  2600
               00623 ;; gen.c:2261:resultRemat *{*
               00624 ;; gen.c:3504:ifxForOp *{*
               00625 ;; ***  ifxForOp  3506
               00626 ;; gen.c:6695:genDjnz *{*
               00627 ;; ***  genDjnz  6696
               00628 ;;      721 register type nRegs=1
               00629 ; >>> gen.c:6726:genDjnz
               00630 ;;      1109 rIdx = r0x1069 
0059 00631 _00192_DS_
0059 0000 0000 00632         BANKSEL r0x100A
005B 0B80      00633         DECFSZ  r0x100A,F
               00634 ; >>> gen.c:6727:genDjnz
               00635 ;; ***  popGetLabel  key=1, label offset 91
005C 2800      00636         GOTO    _00192_DS_
               00637 ;; gen.c:2261:resultRemat *{*
               00638 ;; gen.c:2261:resultRemat *{*
               00639 ;; gen.c:2261:resultRemat *{*
               00640 ;; gen.c:5608:genPointerGet *{*
               00641 ;; ***  genPointerGet  5609
               00642 ;; gen.c:5397:genNearPointerGet *{*
               00643 ;; ***  genNearPointerGet  5398
               00644 ;;      641
gpasm-0.13.7 beta               rfm12.asm   8-8-2010  12:38:54           PAGE 13


LOC  OBJECT CODE     LINE SOURCE TEXT
  VALUE
 
               00645 ;;      aopForRemat 425
               00646 ;;      446: rname _PORTB_bits, val 0, const = 0
               00647 ;; ***  genNearPointerGet  5414
               00648 ;;      721 register type nRegs=1
               00649 ;; gen.c:3504:ifxForOp *{*
               00650 ;; ***  ifxForOp  3506
               00651 ;; gen.c:5240:genUnpackBits *{*
               00652 ;; ***  genUnpackBits  5241
               00653 ;;      858: aopGet AOP_PCODE type PO_IMMEDIATE
               00654 ;;      _PORTB_bits
               00655 ; >>> gen.c:5257:genUnpackBits
               00656         .line   210; "rfm12.c"  }while((!SDI)&&(to<tout));
005D 0000 0000 00657         BANKSEL _PORTB_bits
005F 1880      00658         BTFSC   _PORTB_bits,1
               00659 ; >>> gen.c:5258:genUnpackBits
               00660 ;; ***  popGetLabel  key=7, label offset 91
0060 2800      00661         GOTO    _00198_DS_
               00662 ;; gen.c:2261:resultRemat *{*
               00663 ;; gen.c:2261:resultRemat *{*
               00664 ;; gen.c:3504:ifxForOp *{*
               00665 ;; ***  ifxForOp  3506
               00666 ;; gen.c:3357:genCmpLt *{*
               00667 ;; ***  genCmpLt  3358
               00668 ;;      721 register type nRegs=2
               00669 ;;      721 register type nRegs=2
               00670 ;; gen.c:3126:genCmp *{*
               00671 ; >>> gen.c:3101:pic14_mov2w_regOrLit
               00672 ;;      1109 rIdx = r0x1066 
0061 0000 0000 00673         BANKSEL r0x1006
0063 0800      00674         MOVF    r0x1006,W
               00675 ; >>> gen.c:3234:genCmp
               00676 ;;      1109 rIdx = r0x1068 
0064 0200      00677         SUBWF   r0x1009,W
               00678 ; >>> gen.c:3270:genCmp
0065 1D03      00679         BTFSS   STATUS,2
               00680 ; >>> gen.c:3271:genCmp
               00681 ;; ***  popGetLabel  key=22, label offset 91
0066 2800      00682         GOTO    _00213_DS_
               00683 ; >>> gen.c:3101:pic14_mov2w_regOrLit
               00684 ;;      1109 rIdx = r0x1065 
0067 0800      00685         MOVF    r0x1007,W
               00686 ; >>> gen.c:3273:genCmp
               00687 ;;      1109 rIdx = r0x1067 
0068 0200      00688         SUBWF   r0x1008,W
               00689 ;; gen.c:3073:genSkipc *{*
               00690 ; >>> gen.c:3080:genSkipc
0069 00691 _00213_DS_
0069 1C03      00692         BTFSS   STATUS,0
               00693 ; >>> gen.c:3082:genSkipc
               00694 ;; ***  popGetLabel  key=5, label offset 91
006A 2800      00695         GOTO    _00196_DS_
               00696 ;genSkipc:3083: created from rifx:0xbf877470
               00697 ;; gen.c:2261:resultRemat *{*
               00698 ;; gen.c:2261:resultRemat *{*
gpasm-0.13.7 beta               rfm12.asm   8-8-2010  12:38:54           PAGE 14


LOC  OBJECT CODE     LINE SOURCE TEXT
  VALUE
 
               00699 ;; gen.c:2597:genLabel *{*
               00700 ;; ***  genLabel  2600
               00701 ;; gen.c:2261:resultRemat *{*
               00702 ;; gen.c:3504:ifxForOp *{*
               00703 ;; ***  ifxForOp  3506
               00704 ;; gen.c:3357:genCmpLt *{*
               00705 ;; ***  genCmpLt  3358
               00706 ;;      721 register type nRegs=2
               00707 ;;      721 register type nRegs=2
               00708 ;; gen.c:3126:genCmp *{*
               00709 ; >>> gen.c:3101:pic14_mov2w_regOrLit
               00710 ;;      1109 rIdx = r0x1066 
006B 00711 _00198_DS_
               00712         .line   212; "rfm12.c"  if(to<tout){
006B 0000 0000 00713         BANKSEL r0x1006
006D 0800      00714         MOVF    r0x1006,W
               00715 ; >>> gen.c:3234:genCmp
               00716 ;;      1109 rIdx = r0x1068 
006E 0200      00717         SUBWF   r0x1009,W
               00718 ; >>> gen.c:3270:genCmp
006F 1D03      00719         BTFSS   STATUS,2
               00720 ; >>> gen.c:3271:genCmp
               00721 ;; ***  popGetLabel  key=23, label offset 91
0070 2800      00722         GOTO    _00214_DS_
               00723 ; >>> gen.c:3101:pic14_mov2w_regOrLit
               00724 ;;      1109 rIdx = r0x1065 
0071 0800      00725         MOVF    r0x1007,W
               00726 ; >>> gen.c:3273:genCmp
               00727 ;;      1109 rIdx = r0x1067 
0072 0200      00728         SUBWF   r0x1008,W
               00729 ;; gen.c:3073:genSkipc *{*
               00730 ; >>> gen.c:3078:genSkipc
0073 00731 _00214_DS_
0073 1803      00732         BTFSC   STATUS,0
               00733 ; >>> gen.c:3082:genSkipc
               00734 ;; ***  popGetLabel  key=9, label offset 91
0074 2800      00735         GOTO    _00200_DS_
               00736 ;genSkipc:3083: created from rifx:0xbf877470
               00737 ;; gen.c:2261:resultRemat *{*
               00738 ;; gen.c:2261:resultRemat *{*
               00739 ;; gen.c:2561:genRet *{*
               00740 ;; ***  genRet  2563
               00741 ;; gen.c:1324:mov2w_op *{*
               00742 ; >>> gen.c:1339:mov2w_op
               00743         .line   213; "rfm12.c"  return 1;
0075 3001      00744         MOVLW   0x01
               00745 ; >>> gen.c:2587:genRet
               00746 ;; ***  popGetLabel  key=11, label offset 91
0076 2800      00747         GOTO    _00202_DS_
               00748 ;; gen.c:2261:resultRemat *{*
               00749 ;; gen.c:2597:genLabel *{*
               00750 ;; ***  genLabel  2600
               00751 ;; gen.c:2261:resultRemat *{*
               00752 ;; gen.c:2561:genRet *{*
gpasm-0.13.7 beta               rfm12.asm   8-8-2010  12:38:54           PAGE 15


LOC  OBJECT CODE     LINE SOURCE TEXT
  VALUE
 
               00753 ;; ***  genRet  2563
               00754 ;; gen.c:1324:mov2w_op *{*
               00755 ; >>> gen.c:1339:mov2w_op
0077 00756 _00200_DS_
               00757         .line   215; "rfm12.c"  return 0; 
0077 3000      00758         MOVLW   0x00
               00759 ;; gen.c:2261:resultRemat *{*
               00760 ;; gen.c:2597:genLabel *{*
               00761 ;; ***  genLabel  2600
               00762 ;; gen.c:2261:resultRemat *{*
               00763 ;; gen.c:2435:genEndFunction *{*
               00764 ;; ***  genEndFunction  2437
0078 00765 _00202_DS_
0078 0008      00766         RETURN  
               00767 ; exit point of _rfm12_wait
               00768 ;; gen.c:6803:genpic14Code *{*
               00769 
               00770 ;***
               00771 ;  pBlock Stats: dbName = C
               00772 ;***
               00773 ;entry:  _rfm12_dis_rx  ;Function start
               00774 ; 2 exit points
               00775 ;has an exit
               00776 ;functions called:
               00777 ;   _rfm12_spi16
               00778 ;   _rfm12_spi16
               00779 ;1 compiler assigned register :
               00780 ;   STK00
               00781 ;; Starting pCode block
               00782 ;; gen.c:2261:resultRemat *{*
               00783 ;; gen.c:2597:genLabel *{*
               00784 ;; ***  genLabel  2600
               00785 ;; gen.c:2261:resultRemat *{*
               00786 ;; gen.c:2283:genFunction *{*
               00787 ;; ***  genFunction  2285 curr label offset=83previous max_key=0 
0079 00788 _rfm12_dis_rx   ;Function start
               00789 ; 2 exit points
               00790 ;; gen.c:2261:resultRemat *{*
               00791 ;; gen.c:2261:resultRemat *{*
               00792 ;; gen.c:2030:genCall *{*
               00793 ;; ***  genCall  2032
               00794 ;; gen.c:1765:saveRegisters *{*
               00795 ;; ***  saveRegisters  1767
               00796 ;;      2079 left AOP_LIT
               00797 ;; gen.c:1324:mov2w_op *{*
               00798 ; >>> gen.c:1339:mov2w_op
               00799         .line   192; "rfm12.c"  rfm12_spi16(0x8208);
0079 3008      00800         MOVLW   0x08
               00801 ;;      2079 left AOP_LIT
               00802 ; >>> gen.c:2087:genCall
               00803 ;; ***  popRegFromIdx,1043  , rIdx=0x7f
007A 0080      00804         MOVWF   STK00
               00805 ;; gen.c:1324:mov2w_op *{*
               00806 ; >>> gen.c:1339:mov2w_op
gpasm-0.13.7 beta               rfm12.asm   8-8-2010  12:38:54           PAGE 16


LOC  OBJECT CODE     LINE SOURCE TEXT
  VALUE
 
007B 3082      00807         MOVLW   0x82
               00808 ; >>> gen.c:2116:genCall
007C 00809         PAGESEL _rfm12_spi16
               00810 ; >>> gen.c:2118:genCall
007C 2000      00811         CALL    _rfm12_spi16
               00812 ; >>> gen.c:2123:genCall
007D 00813         PAGESEL $
               00814 ;; gen.c:1809:unsaveRegisters *{*
               00815 ;; ***  unsaveRegisters  1811
               00816 ;; gen.c:2261:resultRemat *{*
               00817 ;; gen.c:2261:resultRemat *{*
               00818 ;; gen.c:6117:genPointerSet *{*
               00819 ;; ***  genPointerSet  6118
               00820 ;; gen.c:5945:genNearPointerSet *{*
               00821 ;; ***  genNearPointerSet  5946
               00822 ;;      641
               00823 ;;      aopForRemat 425
               00824 ;;      446: rname _PORTB_bits, val 0, const = 0
               00825 ;; ***  genNearPointerSet  5963
               00826 ;;      858: aopGet AOP_PCODE type PO_IMMEDIATE
               00827 ;;      _PORTB_bits
               00828 ;;      line = 5965 result AOP_PCODE=_PORTB_bits, size=2, left -=-, size=0, right AOP_LIT=0x01, size=1
               00829 ;; gen.c:5694:genPackBits *{*
               00830 ;; ***  genPackBits  5695
               00831 ;;      858: aopGet AOP_PCODE type PO_IMMEDIATE
               00832 ;;      _PORTB_bits
               00833 ; >>> gen.c:5720:genPackBits
               00834         .line   193; "rfm12.c"  nSEL=1;
007D 0000 0000 00835         BANKSEL _PORTB_bits
007F 1580      00836         BSF     _PORTB_bits,3
               00837 ;; gen.c:2261:resultRemat *{*
               00838 ;; gen.c:2597:genLabel *{*
               00839 ;; ***  genLabel  2600
               00840 ;; gen.c:2261:resultRemat *{*
               00841 ;; gen.c:2435:genEndFunction *{*
               00842 ;; ***  genEndFunction  2437
0080 0008      00843         RETURN  
               00844 ; exit point of _rfm12_dis_rx
               00845 ;; gen.c:6803:genpic14Code *{*
               00846 
               00847 ;***
               00848 ;  pBlock Stats: dbName = C
               00849 ;***
               00850 ;entry:  _rfm12_ena_rx  ;Function start
               00851 ; 2 exit points
               00852 ;has an exit
               00853 ;functions called:
               00854 ;   _rfm12_spi16
               00855 ;   _rfm12_spi16
               00856 ;   _rfm12_spi16
               00857 ;   _rfm12_spi16
               00858 ;   _rfm12_spi16
               00859 ;   _rfm12_spi16
               00860 ;1 compiler assigned register :
gpasm-0.13.7 beta               rfm12.asm   8-8-2010  12:38:54           PAGE 17


LOC  OBJECT CODE     LINE SOURCE TEXT
  VALUE
 
               00861 ;   STK00
               00862 ;; Starting pCode block
               00863 ;; gen.c:2261:resultRemat *{*
               00864 ;; gen.c:2597:genLabel *{*
               00865 ;; ***  genLabel  2600
               00866 ;; gen.c:2261:resultRemat *{*
               00867 ;; gen.c:2283:genFunction *{*
               00868 ;; ***  genFunction  2285 curr label offset=54previous max_key=25 
0081 00869 _rfm12_ena_rx   ;Function start
               00870 ; 2 exit points
               00871 ;; gen.c:2261:resultRemat *{*
               00872 ;; gen.c:2261:resultRemat *{*
               00873 ;; gen.c:6117:genPointerSet *{*
               00874 ;; ***  genPointerSet  6118
               00875 ;; gen.c:5945:genNearPointerSet *{*
               00876 ;; ***  genNearPointerSet  5946
               00877 ;;      641
               00878 ;;      aopForRemat 425
               00879 ;;      446: rname _PORTB_bits, val 0, const = 0
               00880 ;; ***  genNearPointerSet  5963
               00881 ;;      858: aopGet AOP_PCODE type PO_IMMEDIATE
               00882 ;;      _PORTB_bits
               00883 ;;      line = 5965 result AOP_PCODE=_PORTB_bits, size=2, left -=-, size=0, right AOP_LIT=0x00, size=1
               00884 ;; gen.c:5694:genPackBits *{*
               00885 ;; ***  genPackBits  5695
               00886 ;;      858: aopGet AOP_PCODE type PO_IMMEDIATE
               00887 ;;      _PORTB_bits
               00888 ; >>> gen.c:5720:genPackBits
               00889         .line   179; "rfm12.c"  nSEL=0;
0081 0000 0000 00890         BANKSEL _PORTB_bits
0083 1180      00891         BCF     _PORTB_bits,3
               00892 ;; gen.c:2261:resultRemat *{*
               00893 ;; gen.c:2261:resultRemat *{*
               00894 ;; gen.c:2030:genCall *{*
               00895 ;; ***  genCall  2032
               00896 ;; gen.c:1765:saveRegisters *{*
               00897 ;; ***  saveRegisters  1767
               00898 ;;      2079 left AOP_LIT
               00899 ;; gen.c:1324:mov2w_op *{*
               00900 ; >>> gen.c:1339:mov2w_op
               00901         .line   180; "rfm12.c"  rfm12_spi16(0xca80);
0084 3080      00902         MOVLW   0x80
               00903 ;;      2079 left AOP_LIT
               00904 ; >>> gen.c:2087:genCall
               00905 ;; ***  popRegFromIdx,1043  , rIdx=0x7f
0085 0080      00906         MOVWF   STK00
               00907 ;; gen.c:1324:mov2w_op *{*
               00908 ; >>> gen.c:1339:mov2w_op
0086 30CA      00909         MOVLW   0xca
               00910 ; >>> gen.c:2116:genCall
0087 00911         PAGESEL _rfm12_spi16
               00912 ; >>> gen.c:2118:genCall
0087 2000      00913         CALL    _rfm12_spi16
               00914 ; >>> gen.c:2123:genCall
gpasm-0.13.7 beta               rfm12.asm   8-8-2010  12:38:54           PAGE 18


LOC  OBJECT CODE     LINE SOURCE TEXT
  VALUE
 
0088 00915         PAGESEL $
               00916 ;; gen.c:1809:unsaveRegisters *{*
               00917 ;; ***  unsaveRegisters  1811
               00918 ;; gen.c:2261:resultRemat *{*
               00919 ;; gen.c:2261:resultRemat *{*
               00920 ;; gen.c:2030:genCall *{*
               00921 ;; ***  genCall  2032
               00922 ;; gen.c:1765:saveRegisters *{*
               00923 ;; ***  saveRegisters  1767
               00924 ;;      2079 left AOP_LIT
               00925 ;; gen.c:1324:mov2w_op *{*
               00926 ; >>> gen.c:1339:mov2w_op
               00927         .line   181; "rfm12.c"  rfm12_spi16(0xca83);
0088 3083      00928         MOVLW   0x83
               00929 ;;      2079 left AOP_LIT
               00930 ; >>> gen.c:2087:genCall
               00931 ;; ***  popRegFromIdx,1043  , rIdx=0x7f
0089 0080      00932         MOVWF   STK00
               00933 ;; gen.c:1324:mov2w_op *{*
               00934 ; >>> gen.c:1339:mov2w_op
008A 30CA      00935         MOVLW   0xca
               00936 ; >>> gen.c:2116:genCall
008B 00937         PAGESEL _rfm12_spi16
               00938 ; >>> gen.c:2118:genCall
008B 2000      00939         CALL    _rfm12_spi16
               00940 ; >>> gen.c:2123:genCall
008C 00941         PAGESEL $
               00942 ;; gen.c:1809:unsaveRegisters *{*
               00943 ;; ***  unsaveRegisters  1811
               00944 ;; gen.c:2261:resultRemat *{*
               00945 ;; gen.c:2261:resultRemat *{*
               00946 ;; gen.c:2030:genCall *{*
               00947 ;; ***  genCall  2032
               00948 ;; gen.c:1765:saveRegisters *{*
               00949 ;; ***  saveRegisters  1767
               00950 ;;      2079 left AOP_LIT
               00951 ;; gen.c:1324:mov2w_op *{*
               00952 ; >>> gen.c:1339:mov2w_op
               00953         .line   182; "rfm12.c"  rfm12_spi16(0x82c8);
008C 30C8      00954         MOVLW   0xc8
               00955 ;;      2079 left AOP_LIT
               00956 ; >>> gen.c:2087:genCall
               00957 ;; ***  popRegFromIdx,1043  , rIdx=0x7f
008D 0080      00958         MOVWF   STK00
               00959 ;; gen.c:1324:mov2w_op *{*
               00960 ; >>> gen.c:1339:mov2w_op
008E 3082      00961         MOVLW   0x82
               00962 ; >>> gen.c:2116:genCall
008F 00963         PAGESEL _rfm12_spi16
               00964 ; >>> gen.c:2118:genCall
008F 2000      00965         CALL    _rfm12_spi16
               00966 ; >>> gen.c:2123:genCall
0090 00967         PAGESEL $
               00968 ;; gen.c:1809:unsaveRegisters *{*
gpasm-0.13.7 beta               rfm12.asm   8-8-2010  12:38:54           PAGE 19


LOC  OBJECT CODE     LINE SOURCE TEXT
  VALUE
 
               00969 ;; ***  unsaveRegisters  1811
               00970 ;; gen.c:2261:resultRemat *{*
               00971 ;; gen.c:2597:genLabel *{*
               00972 ;; ***  genLabel  2600
               00973 ;; gen.c:2261:resultRemat *{*
               00974 ;; gen.c:2435:genEndFunction *{*
               00975 ;; ***  genEndFunction  2437
0090 0008      00976         RETURN  
               00977 ; exit point of _rfm12_ena_rx
               00978 ;; gen.c:6803:genpic14Code *{*
               00979 
               00980 ;***
               00981 ;  pBlock Stats: dbName = C
               00982 ;***
               00983 ;entry:  _rfm12_rcv_msg ;Function start
               00984 ; 2 exit points
               00985 ;has an exit
               00986 ;functions called:
               00987 ;   _rfm12_spi16
               00988 ;   _rfm12_wait
               00989 ;   __gptrput1
               00990 ;   _rfm12_spi16
               00991 ;   _rfm12_wait
               00992 ;   _rfm12_dis_rx
               00993 ;   _rfm12_ena_rx
               00994 ;   _rfm12_spi16
               00995 ;   _rfm12_wait
               00996 ;   __gptrput1
               00997 ;   _rfm12_spi16
               00998 ;   _rfm12_wait
               00999 ;   _rfm12_dis_rx
               01000 ;   _rfm12_ena_rx
               01001 ;18 compiler assigned registers:
               01002 ;   r0x100B
               01003 ;   STK00
               01004 ;   r0x100C
               01005 ;   STK01
               01006 ;   r0x100D
               01007 ;   STK02
               01008 ;   r0x100E
               01009 ;   STK03
               01010 ;   r0x100F
               01011 ;   r0x1010
               01012 ;   r0x1011
               01013 ;   r0x1012
               01014 ;   r0x1013
               01015 ;   r0x1014
               01016 ;   r0x1015
               01017 ;   r0x1016
               01018 ;   r0x1017
               01019 ;   r0x1018
               01020 ;; Starting pCode block
               01021 ;; gen.c:2261:resultRemat *{*
               01022 ;; gen.c:2597:genLabel *{*
gpasm-0.13.7 beta               rfm12.asm   8-8-2010  12:38:54           PAGE 20


LOC  OBJECT CODE     LINE SOURCE TEXT
  VALUE
 
               01023 ;; ***  genLabel  2600
               01024 ;; gen.c:2261:resultRemat *{*
               01025 ;; gen.c:2283:genFunction *{*
               01026 ;; ***  genFunction  2285 curr label offset=8previous max_key=42 
0091 01027 _rfm12_rcv_msg  ;Function start
               01028 ; 2 exit points
               01029 ;; gen.c:2261:resultRemat *{*
               01030 ;; gen.c:6739:genReceive *{*
               01031 ;; ***  genReceive  6740
               01032 ;;      721 register type nRegs=3
               01033 ;; gen.c:1866:assignResultValue *{*
               01034 ;; ***  assignResultValue  1868
               01035 ;;      line = 1870 result -=-, size=0, left AOP_REG=r0x1057, size=3, right -=-, size=0
               01036 ; >>> gen.c:1367:movwf
               01037 ;;      1109 rIdx = r0x1059 
               01038         .line   140; "rfm12.c"  unsigned char rfm12_rcv_msg(unsigned char *msg,int len){
0091 0000 0000 01039         BANKSEL r0x100B
0093 0080      01040         MOVWF   r0x100B
               01041 ; >>> gen.c:1393:get_returnvalue
               01042 ;; ***  popRegFromIdx,1043  , rIdx=0x7f
0094 0800      01043         MOVF    STK00,W
               01044 ; >>> gen.c:1367:movwf
               01045 ;;      1109 rIdx = r0x1058 
0095 0080      01046         MOVWF   r0x100C
               01047 ; >>> gen.c:1393:get_returnvalue
               01048 ;; ***  popRegFromIdx,1043  , rIdx=0x7e
0096 0800      01049         MOVF    STK01,W
               01050 ; >>> gen.c:1367:movwf
               01051 ;;      1109 rIdx = r0x1057 
0097 0080      01052         MOVWF   r0x100D
               01053 ;; gen.c:2261:resultRemat *{*
               01054 ;; gen.c:6739:genReceive *{*
               01055 ;; ***  genReceive  6740
               01056 ;;      721 register type nRegs=2
               01057 ;; gen.c:1866:assignResultValue *{*
               01058 ;; ***  assignResultValue  1868
               01059 ;;      line = 1870 result -=-, size=0, left AOP_REG=r0x105A, size=2, right -=-, size=0
               01060 ; >>> gen.c:1393:get_returnvalue
               01061 ;; ***  popRegFromIdx,1043  , rIdx=0x7d
0098 0800      01062         MOVF    STK02,W
               01063 ; >>> gen.c:1367:movwf
               01064 ;;      1109 rIdx = r0x105B 
0099 0080      01065         MOVWF   r0x100E
               01066 ; >>> gen.c:1393:get_returnvalue
               01067 ;; ***  popRegFromIdx,1043  , rIdx=0x7c
009A 0800      01068         MOVF    STK03,W
               01069 ; >>> gen.c:1367:movwf
               01070 ;;      1109 rIdx = r0x105A 
009B 0080      01071         MOVWF   r0x100F
               01072 ;; gen.c:2261:resultRemat *{*
               01073 ;; gen.c:6332:genAssign *{*
               01074 ;; ***  genAssign  6333
               01075 ;;      721 register type nRegs=2
               01076 ;;      line = 6342 result AOP_REG=r0x105C, size=2, left -=-, size=0, right AOP_LIT=0x00, size=2
gpasm-0.13.7 beta               rfm12.asm   8-8-2010  12:38:54           PAGE 21


LOC  OBJECT CODE     LINE SOURCE TEXT
  VALUE
 
               01077 ;; ***  genAssign  6434
               01078 ; >>> gen.c:6443:genAssign
               01079 ;;      1109 rIdx = r0x105C 
               01080         .line   141; "rfm12.c"  unsigned int d, chksum=0;
009C 0180      01081         CLRF    r0x1010
               01082 ;; ***  genAssign  6434
               01083 ; >>> gen.c:6443:genAssign
               01084 ;;      1109 rIdx = r0x105D 
009D 0180      01085         CLRF    r0x1011
               01086 ;; gen.c:2261:resultRemat *{*
               01087 ;; gen.c:2261:resultRemat *{*
               01088 ;; gen.c:6117:genPointerSet *{*
               01089 ;; ***  genPointerSet  6118
               01090 ;; gen.c:5945:genNearPointerSet *{*
               01091 ;; ***  genNearPointerSet  5946
               01092 ;;      641
               01093 ;;      aopForRemat 425
               01094 ;;      446: rname _PORTB_bits, val 0, const = 0
               01095 ;; ***  genNearPointerSet  5963
               01096 ;;      858: aopGet AOP_PCODE type PO_IMMEDIATE
               01097 ;;      _PORTB_bits
               01098 ;;      line = 5965 result AOP_PCODE=_PORTB_bits, size=2, left -=-, size=0, right AOP_LIT=0x00, size=1
               01099 ;; gen.c:5694:genPackBits *{*
               01100 ;; ***  genPackBits  5695
               01101 ;;      858: aopGet AOP_PCODE type PO_IMMEDIATE
               01102 ;;      _PORTB_bits
               01103 ; >>> gen.c:5720:genPackBits
               01104         .line   144; "rfm12.c"  nSEL=0;
009E 0000 0000 01105         BANKSEL _PORTB_bits
00A0 1180      01106         BCF     _PORTB_bits,3
               01107 ;; gen.c:2261:resultRemat *{*
               01108 ;; gen.c:6332:genAssign *{*
               01109 ;; ***  genAssign  6333
               01110 ;;      721 register type nRegs=1
               01111 ;;      line = 6342 result AOP_REG=r0x105E, size=1, left -=-, size=0, right AOP_LIT=0x00, size=1
               01112 ;; ***  genAssign  6434
               01113 ; >>> gen.c:6443:genAssign
               01114 ;;      1109 rIdx = r0x105E 
               01115         .line   147; "rfm12.c"  for(i=0;i<len;i++){
00A1 0000 0000 01116         BANKSEL r0x1012
00A3 0180      01117         CLRF    r0x1012
               01118 ;; gen.c:2261:resultRemat *{*
               01119 ;; gen.c:2597:genLabel *{*
               01120 ;; ***  genLabel  2600
               01121 ;; gen.c:2261:resultRemat *{*
               01122 ;; gen.c:6521:genCast *{*
               01123 ;; ***  genCast  6522
               01124 ;;      721 register type nRegs=1
               01125 ;;      721 register type nRegs=2
               01126 ;;      line = 6530 result AOP_REG=r0x105F, size=2, left -=-, size=0, right AOP_REG=r0x105E, size=1
               01127 ; >>> gen.c:6676:genCast
               01128 ;;      1109 rIdx = r0x105E 
00A4 01129 _00164_DS_
00A4 0000 0000 01130         BANKSEL r0x1012
gpasm-0.13.7 beta               rfm12.asm   8-8-2010  12:38:54           PAGE 22


LOC  OBJECT CODE     LINE SOURCE TEXT
  VALUE
 
00A6 0800      01131         MOVF    r0x1012,W
               01132 ; >>> gen.c:6677:genCast
               01133 ;;      1109 rIdx = r0x105F 
00A7 0080      01134         MOVWF   r0x1013
               01135 ;; ***  pic14_getDataSize  1426
               01136 ;; ***  addSign  797
               01137 ;; genarith.c:798:addSign *{*
               01138 ; >>> genarith.c:817:addSign
               01139 ;;      1109 rIdx = r0x1060 
00A8 0180      01140         CLRF    r0x1014
               01141 ;; gen.c:2261:resultRemat *{*
               01142 ;; gen.c:3504:ifxForOp *{*
               01143 ;; ***  ifxForOp  3506
               01144 ;; gen.c:3357:genCmpLt *{*
               01145 ;; ***  genCmpLt  3358
               01146 ;;      721 register type nRegs=2
               01147 ;;      721 register type nRegs=2
               01148 ;; gen.c:3126:genCmp *{*
               01149 ;; ***  mov2w  1356  offset=1
               01150 ; >>> gen.c:1361:mov2w
               01151 ;;      1109 rIdx = r0x1060 
00A9 3000      01152         MOVLW   0x00
               01153 ; >>> gen.c:3256:genCmp
00AA 3E80      01154         ADDLW   0x80
               01155 ; >>> gen.c:3257:genCmp
00AB 0080      01156         MOVWF   r0x1015
               01157 ;; ***  mov2w  1356  offset=1
               01158 ; >>> gen.c:1361:mov2w
               01159 ;;      1109 rIdx = r0x105B 
00AC 0800      01160         MOVF    r0x100E,W
               01161 ; >>> gen.c:3259:genCmp
00AD 3E80      01162         ADDLW   0x80
               01163 ; >>> gen.c:3260:genCmp
00AE 0200      01164         SUBWF   r0x1015,W
               01165 ; >>> gen.c:3270:genCmp
00AF 1D03      01166         BTFSS   STATUS,2
               01167 ; >>> gen.c:3271:genCmp
               01168 ;; ***  popGetLabel  key=24, label offset 54
00B0 2800      01169         GOTO    _00178_DS_
               01170 ; >>> gen.c:3101:pic14_mov2w_regOrLit
               01171 ;;      1109 rIdx = r0x105A 
00B1 0800      01172         MOVF    r0x100F,W
               01173 ; >>> gen.c:3273:genCmp
               01174 ;;      1109 rIdx = r0x105F 
00B2 0200      01175         SUBWF   r0x1013,W
               01176 ;; gen.c:3073:genSkipc *{*
               01177 ; >>> gen.c:3078:genSkipc
00B3 01178 _00178_DS_
00B3 1803      01179         BTFSC   STATUS,0
               01180 ; >>> gen.c:3082:genSkipc
               01181 ;; ***  popGetLabel  key=13, label offset 54
00B4 2800      01182         GOTO    _00167_DS_
               01183 ;genSkipc:3083: created from rifx:0xbf877470
               01184 ;; gen.c:2261:resultRemat *{*
gpasm-0.13.7 beta               rfm12.asm   8-8-2010  12:38:54           PAGE 23


LOC  OBJECT CODE     LINE SOURCE TEXT
  VALUE
 
               01185 ;; gen.c:2261:resultRemat *{*
               01186 ;; gen.c:2261:resultRemat *{*
               01187 ;; gen.c:2030:genCall *{*
               01188 ;; ***  genCall  2032
               01189 ;; gen.c:1765:saveRegisters *{*
               01190 ;; ***  saveRegisters  1767
               01191 ;;      2079 left AOP_LIT
               01192 ;; gen.c:1324:mov2w_op *{*
               01193 ; >>> gen.c:1339:mov2w_op
               01194         .line   148; "rfm12.c"  d=rfm12_spi16(0xb000);
00B5 3000      01195         MOVLW   0x00
               01196 ;;      2079 left AOP_LIT
               01197 ; >>> gen.c:2087:genCall
               01198 ;; ***  popRegFromIdx,1043  , rIdx=0x7f
00B6 0080      01199         MOVWF   STK00
               01200 ;; gen.c:1324:mov2w_op *{*
               01201 ; >>> gen.c:1339:mov2w_op
00B7 30B0      01202         MOVLW   0xb0
               01203 ; >>> gen.c:2116:genCall
00B8 01204         PAGESEL _rfm12_spi16
               01205 ; >>> gen.c:2118:genCall
00B8 2000      01206         CALL    _rfm12_spi16
               01207 ; >>> gen.c:2123:genCall
00B9 01208         PAGESEL $
               01209 ;;      721 register type nRegs=2
               01210 ;; gen.c:1866:assignResultValue *{*
               01211 ;; ***  assignResultValue  1868
               01212 ;;      line = 1870 result -=-, size=0, left AOP_REG=r0x105F, size=2, right -=-, size=0
               01213 ; >>> gen.c:1367:movwf
               01214 ;;      1109 rIdx = r0x1060 
00B9 0000 0000 01215         BANKSEL r0x1014
00BB 0080      01216         MOVWF   r0x1014
               01217 ; >>> gen.c:1393:get_returnvalue
               01218 ;; ***  popRegFromIdx,1043  , rIdx=0x7f
00BC 0800      01219         MOVF    STK00,W
               01220 ; >>> gen.c:1367:movwf
               01221 ;;      1109 rIdx = r0x105F 
00BD 0080      01222         MOVWF   r0x1013
               01223 ;;      2138 left AOP_REG
               01224 ;; gen.c:1809:unsaveRegisters *{*
               01225 ;; ***  unsaveRegisters  1811
               01226 ;; gen.c:2261:resultRemat *{*
               01227 ;; gen.c:2261:resultRemat *{*
               01228 ;; gen.c:2030:genCall *{*
               01229 ;; ***  genCall  2032
               01230 ;; gen.c:1765:saveRegisters *{*
               01231 ;; ***  saveRegisters  1767
               01232 ;;      2079 left AOP_LIT
               01233 ;; gen.c:1324:mov2w_op *{*
               01234 ; >>> gen.c:1339:mov2w_op
               01235         .line   149; "rfm12.c"  if(0==rfm12_wait(RFM12_TOUT))
00BE 30E8      01236         MOVLW   0xe8
               01237 ;;      2079 left AOP_LIT
               01238 ; >>> gen.c:2087:genCall
gpasm-0.13.7 beta               rfm12.asm   8-8-2010  12:38:54           PAGE 24


LOC  OBJECT CODE     LINE SOURCE TEXT
  VALUE
 
               01239 ;; ***  popRegFromIdx,1043  , rIdx=0x7f
00BF 0080      01240         MOVWF   STK00
               01241 ;; gen.c:1324:mov2w_op *{*
               01242 ; >>> gen.c:1339:mov2w_op
00C0 3003      01243         MOVLW   0x03
               01244 ; >>> gen.c:2116:genCall
00C1 01245         PAGESEL _rfm12_wait
               01246 ; >>> gen.c:2118:genCall
00C1 2000      01247         CALL    _rfm12_wait
               01248 ; >>> gen.c:2123:genCall
00C2 01249         PAGESEL $
               01250 ;;      721 register type nRegs=1
               01251 ;; gen.c:1866:assignResultValue *{*
               01252 ;; ***  assignResultValue  1868
               01253 ;;      line = 1870 result -=-, size=0, left AOP_REG=r0x1061, size=1, right -=-, size=0
               01254 ; >>> gen.c:1367:movwf
               01255 ;;      1109 rIdx = r0x1061 
00C2 0000 0000 01256         BANKSEL r0x1015
00C4 0080      01257         MOVWF   r0x1015
               01258 ;;      2138 left AOP_REG
               01259 ;; gen.c:1809:unsaveRegisters *{*
               01260 ;; ***  unsaveRegisters  1811
               01261 ;; gen.c:2261:resultRemat *{*
               01262 ;; gen.c:3504:ifxForOp *{*
               01263 ;; ***  ifxForOp  3506
               01264 ;; gen.c:3388:genCmpEq *{*
               01265 ;; ***  genCmpEq  3389
               01266 ;; ifx is non-null
               01267 ;;      721 register type nRegs=1
               01268 ;;      line = 3400 result AOP_CRY=0x00, size=0, left AOP_LIT=0x00, size=1, right AOP_REG=r0x1061, size=1
               01269 ;; ***  mov2w  1356  offset=0
               01270 ; >>> gen.c:1361:mov2w
               01271 ;;      1109 rIdx = r0x1061 
00C5 0800      01272         MOVF    r0x1015,W
               01273 ; >>> gen.c:3443:genCmpEq
00C6 1D03      01274         BTFSS   STATUS,2
               01275 ; >>> gen.c:3445:genCmpEq
               01276 ;; ***  popGetLabel  key=2, label offset 54
00C7 2800      01277         GOTO    _00156_DS_
               01278 ;; gen.c:2261:resultRemat *{*
               01279 ;; gen.c:2261:resultRemat *{*
               01280 ;; gen.c:2561:genRet *{*
               01281 ;; ***  genRet  2563
               01282 ;; gen.c:1324:mov2w_op *{*
               01283 ; >>> gen.c:1339:mov2w_op
               01284         .line   150; "rfm12.c"  return 0; 
00C8 3000      01285         MOVLW   0x00
               01286 ; >>> gen.c:2587:genRet
               01287 ;; ***  popGetLabel  key=14, label offset 54
00C9 2800      01288         GOTO    _00168_DS_
               01289 ;; gen.c:2261:resultRemat *{*
               01290 ;; gen.c:2597:genLabel *{*
               01291 ;; ***  genLabel  2600
               01292 ;; gen.c:2261:resultRemat *{*
gpasm-0.13.7 beta               rfm12.asm   8-8-2010  12:38:54           PAGE 25


LOC  OBJECT CODE     LINE SOURCE TEXT
  VALUE
 
               01293 ;; ***  genPlus  547
               01294 ;; genarith.c:548:genPlus *{*
               01295 ;;      721 register type nRegs=3
               01296 ;;      721 register type nRegs=1
               01297 ;;      721 register type nRegs=3
               01298 ;;      line = 554 result AOP_REG=r0x1061, size=3, left AOP_REG=r0x1057, size=3, right AOP_REG=r0x105E, size=1
               01299 ;; ***  pic14_getDataSize  1426
               01300 ;; ***  pic14_getDataSize  1446
               01301 ;; genarith.c:142:genPlusIncr *{*
               01302 ;; ***  genPlusIncr  144
               01303 ;;      result AOP_REG, left AOP_REG, right AOP_REG
               01304 ;; ***  pic14_getDataSize  1426
               01305 ;; ***  pic14_getDataSize  1446
               01306 ;; ***  genPlus  653
               01307 ; >>> genarith.c:662:genPlus
               01308 ;;      1109 rIdx = r0x105E 
00CA 01309 _00156_DS_
               01310         .line   151; "rfm12.c"  msg[i]=(unsigned char)d;
00CA 0000 0000 01311         BANKSEL r0x1012
00CC 0800      01312         MOVF    r0x1012,W
               01313 ; >>> genarith.c:671:genPlus
               01314 ;;      1109 rIdx = r0x1057 
00CD 0700      01315         ADDWF   r0x100D,W
               01316 ; >>> genarith.c:672:genPlus
               01317 ;;      1109 rIdx = r0x1061 
00CE 0080      01318         MOVWF   r0x1015
               01319 ; >>> genarith.c:735:genPlus
               01320 ;;      1109 rIdx = r0x1058 
00CF 0800      01321         MOVF    r0x100C,W
               01322 ; >>> genarith.c:736:genPlus
00D0 1803      01323         BTFSC   STATUS,0
               01324 ; >>> genarith.c:737:genPlus
00D1 3E01      01325         ADDLW   0x01
               01326 ; >>> genarith.c:738:genPlus
               01327 ;;      1109 rIdx = r0x1062 
00D2 0080      01328         MOVWF   r0x1016
               01329 ; >>> genarith.c:735:genPlus
               01330 ;;      1109 rIdx = r0x1059 
00D3 0800      01331         MOVF    r0x100B,W
               01332 ; >>> genarith.c:736:genPlus
00D4 1803      01333         BTFSC   STATUS,0
               01334 ; >>> genarith.c:737:genPlus
00D5 3E01      01335         ADDLW   0x01
               01336 ; >>> genarith.c:738:genPlus
               01337 ;;      1109 rIdx = r0x1063 
00D6 0080      01338         MOVWF   r0x1017
               01339 ;; gen.c:2261:resultRemat *{*
               01340 ;; gen.c:6521:genCast *{*
               01341 ;; ***  genCast  6522
               01342 ;;      721 register type nRegs=2
               01343 ;;      721 register type nRegs=1
               01344 ;;      line = 6530 result AOP_REG=r0x1064, size=1, left -=-, size=0, right AOP_REG=r0x105F, size=2
               01345 ;; ***  genCast  6636
               01346 ; >>> gen.c:6656:genCast
gpasm-0.13.7 beta               rfm12.asm   8-8-2010  12:38:54           PAGE 26


LOC  OBJECT CODE     LINE SOURCE TEXT
  VALUE
 
               01347 ;;      1109 rIdx = r0x105F 
00D7 0800      01348         MOVF    r0x1013,W
00D8 0080      01349         MOVWF   r0x1018
00D9 0080      01350         MOVWF   STK02
               01351 ;; ***  mov2w  1356  offset=0
               01352 ; >>> gen.c:1361:mov2w
               01353 ;;      1109 rIdx = r0x1061 
00DA 0800      01354         MOVF    r0x1015,W
               01355 ; >>> gen.c:6097:genGenPointerSet
               01356 ;; ***  popRegFromIdx,1043  , rIdx=0x7e
00DB 0080      01357         MOVWF   STK01
               01358 ;; ***  mov2w  1356  offset=1
               01359 ; >>> gen.c:1361:mov2w
               01360 ;;      1109 rIdx = r0x1062 
00DC 0800      01361         MOVF    r0x1016,W
               01362 ; >>> gen.c:6099:genGenPointerSet
               01363 ;; ***  popRegFromIdx,1043  , rIdx=0x7f
00DD 0080      01364         MOVWF   STK00
               01365 ;; ***  mov2w  1356  offset=2
               01366 ; >>> gen.c:1361:mov2w
               01367 ;;      1109 rIdx = r0x1063 
00DE 0800      01368         MOVF    r0x1017,W
               01369 ; >>> gen.c:1402:call_libraryfunc
00DF 01370         PAGESEL __gptrput1
               01371 ; >>> gen.c:1404:call_libraryfunc
00DF 2000      01372         CALL    __gptrput1
               01373 ; >>> gen.c:1406:call_libraryfunc
00E0 01374         PAGESEL $
               01375 ;; gen.c:2261:resultRemat *{*
               01376 ;; gen.c:6521:genCast *{*
               01377 ;; ***  genCast  6522
               01378 ;;      721 register type nRegs=1
               01379 ;;      721 register type nRegs=2
               01380 ;;      line = 6530 result AOP_REG=r0x1061, size=2, left -=-, size=0, right AOP_REG=r0x1064, size=1
               01381 ; >>> gen.c:6676:genCast
               01382 ;;      1109 rIdx = r0x1064 
               01383 ;;103   MOVF    r0x1018,W
               01384 ; >>> gen.c:6677:genCast
               01385 ;;      1109 rIdx = r0x1061 
               01386 ;; ***  pic14_getDataSize  1426
               01387 ;; ***  addSign  797
               01388 ;; genarith.c:798:addSign *{*
               01389 ; >>> genarith.c:817:addSign
               01390 ;;      1109 rIdx = r0x1062 
               01391         .line   152; "rfm12.c"  chksum+=msg[i];
00E0 0000 0000 01392         BANKSEL r0x1016
00E2 0180      01393         CLRF    r0x1016
               01394 ;; gen.c:2261:resultRemat *{*
               01395 ;; ***  genPlus  547
               01396 ;; genarith.c:548:genPlus *{*
               01397 ;;      721 register type nRegs=2
               01398 ;;      721 register type nRegs=2
               01399 ;;      606
               01400 ;;      line = 554 result AOP_REG=r0x105C, size=2, left AOP_REG=r0x105C, size=2, right AOP_REG=r0x1061, size=2
gpasm-0.13.7 beta               rfm12.asm   8-8-2010  12:38:54           PAGE 27


LOC  OBJECT CODE     LINE SOURCE TEXT
  VALUE
 
               01401 ;; ***  pic14_getDataSize  1426
               01402 ;; genarith.c:142:genPlusIncr *{*
               01403 ;; ***  genPlusIncr  144
               01404 ;;      result AOP_REG, left AOP_REG, right AOP_REG
               01405 ;; ***  pic14_getDataSize  1426
               01406 ;; ***  genPlus  653
               01407 ; >>> genarith.c:662:genPlus
               01408 ;;      1109 rIdx = r0x1061 
               01409 ;;102   MOVF    r0x1015,W
00E3 0800      01410         MOVF    r0x1018,W
00E4 0080      01411         MOVWF   r0x1015
               01412 ; >>> genarith.c:665:genPlus
               01413 ;;      1109 rIdx = r0x105C 
00E5 0780      01414         ADDWF   r0x1010,F
               01415 ; >>> genarith.c:710:genPlus
               01416 ;;      1109 rIdx = r0x1062 
00E6 3000      01417         MOVLW   0x00
               01418 ; >>> genarith.c:711:genPlus
00E7 1803      01419         BTFSC   STATUS,0
               01420 ; >>> genarith.c:712:genPlus
               01421 ;;      1109 rIdx = r0x1062 
00E8 0F00      01422         INCFSZ  r0x1016,W
               01423 ; >>> genarith.c:713:genPlus
               01424 ;;      1109 rIdx = r0x105D 
00E9 0780      01425         ADDWF   r0x1011,F
               01426 ;; gen.c:2261:resultRemat *{*
               01427 ;; ***  genPlus  547
               01428 ;; genarith.c:548:genPlus *{*
               01429 ;;      721 register type nRegs=1
               01430 ;;      606
               01431 ;;      line = 554 result AOP_REG=r0x105E, size=1, left AOP_REG=r0x105E, size=1, right AOP_LIT=0x01, size=1
               01432 ;; ***  pic14_getDataSize  1426
               01433 ;; genarith.c:142:genPlusIncr *{*
               01434 ;; ***  genPlusIncr  144
               01435 ;;      result AOP_REG, left AOP_REG, right AOP_LIT
               01436 ;;      genPlusIncr  156
               01437 ; >>> genarith.c:168:genPlusIncr
               01438 ;;      1109 rIdx = r0x105E 
               01439         .line   147; "rfm12.c"  for(i=0;i<len;i++){
00EA 0A80      01440         INCF    r0x1012,F
               01441 ;; gen.c:2261:resultRemat *{*
               01442 ;; gen.c:2614:genGoto *{*
               01443 ; >>> gen.c:2616:genGoto
               01444 ;; ***  popGetLabel  key=10, label offset 54
00EB 2800      01445         GOTO    _00164_DS_
               01446 ;; gen.c:2261:resultRemat *{*
               01447 ;; gen.c:2597:genLabel *{*
               01448 ;; ***  genLabel  2600
               01449 ;; gen.c:2261:resultRemat *{*
               01450 ;; gen.c:2261:resultRemat *{*
               01451 ;; gen.c:2030:genCall *{*
               01452 ;; ***  genCall  2032
               01453 ;; gen.c:1765:saveRegisters *{*
               01454 ;; ***  saveRegisters  1767
gpasm-0.13.7 beta               rfm12.asm   8-8-2010  12:38:54           PAGE 28


LOC  OBJECT CODE     LINE SOURCE TEXT
  VALUE
 
               01455 ;;      2079 left AOP_LIT
               01456 ;; gen.c:1324:mov2w_op *{*
               01457 ; >>> gen.c:1339:mov2w_op
00EC 01458 _00167_DS_
               01459         .line   155; "rfm12.c"  d=rfm12_spi16(0xb000);
00EC 3000      01460         MOVLW   0x00
               01461 ;;      2079 left AOP_LIT
               01462 ; >>> gen.c:2087:genCall
               01463 ;; ***  popRegFromIdx,1043  , rIdx=0x7f
00ED 0080      01464         MOVWF   STK00
               01465 ;; gen.c:1324:mov2w_op *{*
               01466 ; >>> gen.c:1339:mov2w_op
00EE 30B0      01467         MOVLW   0xb0
               01468 ; >>> gen.c:2116:genCall
00EF 01469         PAGESEL _rfm12_spi16
               01470 ; >>> gen.c:2118:genCall
00EF 2000      01471         CALL    _rfm12_spi16
               01472 ; >>> gen.c:2123:genCall
00F0 01473         PAGESEL $
               01474 ;;      721 register type nRegs=2
               01475 ;; gen.c:1866:assignResultValue *{*
               01476 ;; ***  assignResultValue  1868
               01477 ;;      line = 1870 result -=-, size=0, left AOP_REG=r0x105F, size=2, right -=-, size=0
               01478 ; >>> gen.c:1367:movwf
               01479 ;;      1109 rIdx = r0x1060 
00F0 0000 0000 01480         BANKSEL r0x1014
00F2 0080      01481         MOVWF   r0x1014
               01482 ; >>> gen.c:1393:get_returnvalue
               01483 ;; ***  popRegFromIdx,1043  , rIdx=0x7f
00F3 0800      01484         MOVF    STK00,W
               01485 ; >>> gen.c:1367:movwf
               01486 ;;      1109 rIdx = r0x105F 
00F4 0080      01487         MOVWF   r0x1013
               01488 ;;      2138 left AOP_REG
               01489 ;; gen.c:1809:unsaveRegisters *{*
               01490 ;; ***  unsaveRegisters  1811
               01491 ;; gen.c:2261:resultRemat *{*
               01492 ;; gen.c:2261:resultRemat *{*
               01493 ;; gen.c:2030:genCall *{*
               01494 ;; ***  genCall  2032
               01495 ;; gen.c:1765:saveRegisters *{*
               01496 ;; ***  saveRegisters  1767
               01497 ;;      2079 left AOP_LIT
               01498 ;; gen.c:1324:mov2w_op *{*
               01499 ; >>> gen.c:1339:mov2w_op
               01500         .line   156; "rfm12.c"  if(0==rfm12_wait(RFM12_TOUT))
00F5 30E8      01501         MOVLW   0xe8
               01502 ;;      2079 left AOP_LIT
               01503 ; >>> gen.c:2087:genCall
               01504 ;; ***  popRegFromIdx,1043  , rIdx=0x7f
00F6 0080      01505         MOVWF   STK00
               01506 ;; gen.c:1324:mov2w_op *{*
               01507 ; >>> gen.c:1339:mov2w_op
00F7 3003      01508         MOVLW   0x03
gpasm-0.13.7 beta               rfm12.asm   8-8-2010  12:38:54           PAGE 29


LOC  OBJECT CODE     LINE SOURCE TEXT
  VALUE
 
               01509 ; >>> gen.c:2116:genCall
00F8 01510         PAGESEL _rfm12_wait
               01511 ; >>> gen.c:2118:genCall
00F8 2000      01512         CALL    _rfm12_wait
               01513 ; >>> gen.c:2123:genCall
00F9 01514         PAGESEL $
               01515 ;;      721 register type nRegs=1
               01516 ;; gen.c:1866:assignResultValue *{*
               01517 ;; ***  assignResultValue  1868
               01518 ;;      line = 1870 result -=-, size=0, left AOP_REG=r0x1057, size=1, right -=-, size=0
               01519 ; >>> gen.c:1367:movwf
               01520 ;;      1109 rIdx = r0x1057 
00F9 0000 0000 01521         BANKSEL r0x100D
00FB 0080      01522         MOVWF   r0x100D
               01523 ;;      2138 left AOP_REG
               01524 ;; gen.c:1809:unsaveRegisters *{*
               01525 ;; ***  unsaveRegisters  1811
               01526 ;; gen.c:2261:resultRemat *{*
               01527 ;; gen.c:3504:ifxForOp *{*
               01528 ;; ***  ifxForOp  3506
               01529 ;; gen.c:3388:genCmpEq *{*
               01530 ;; ***  genCmpEq  3389
               01531 ;; ifx is non-null
               01532 ;;      721 register type nRegs=1
               01533 ;;      line = 3400 result AOP_CRY=0x00, size=0, left AOP_LIT=0x00, size=1, right AOP_REG=r0x1057, size=1
               01534 ;; ***  mov2w  1356  offset=0
               01535 ; >>> gen.c:1361:mov2w
               01536 ;;      1109 rIdx = r0x1057 
00FC 0800      01537         MOVF    r0x100D,W
               01538 ; >>> gen.c:3443:genCmpEq
00FD 1D03      01539         BTFSS   STATUS,2
               01540 ; >>> gen.c:3445:genCmpEq
               01541 ;; ***  popGetLabel  key=4, label offset 54
00FE 2800      01542         GOTO    _00158_DS_
               01543 ;; gen.c:2261:resultRemat *{*
               01544 ;; gen.c:2261:resultRemat *{*
               01545 ;; gen.c:2561:genRet *{*
               01546 ;; ***  genRet  2563
               01547 ;; gen.c:1324:mov2w_op *{*
               01548 ; >>> gen.c:1339:mov2w_op
               01549         .line   157; "rfm12.c"  return 0;
00FF 3000      01550         MOVLW   0x00
               01551 ; >>> gen.c:2587:genRet
               01552 ;; ***  popGetLabel  key=14, label offset 54
0100 2800      01553         GOTO    _00168_DS_
               01554 ;; gen.c:2261:resultRemat *{*
               01555 ;; gen.c:2597:genLabel *{*
               01556 ;; ***  genLabel  2600
               01557 ;; gen.c:2261:resultRemat *{*
               01558 ;; gen.c:3504:ifxForOp *{*
               01559 ;; ***  ifxForOp  3506
               01560 ;; NULL :(      3526
               01561 ;; gen.c:3719:genAnd *{*
               01562 ;; ***  genAnd  3720
gpasm-0.13.7 beta               rfm12.asm   8-8-2010  12:38:54           PAGE 30


LOC  OBJECT CODE     LINE SOURCE TEXT
  VALUE
 
               01563 ;;      721 register type nRegs=2
               01564 ;;      606
               01565 ;;      line = 3754 result AOP_REG=r0x105C, size=2, left AOP_REG=r0x105C, size=2, right AOP_LIT=0xff, size=2
               01566 ; >>> gen.c:3887:genAnd
               01567 ;;      1109 rIdx = r0x105D 
0101 01568 _00158_DS_
               01569         .line   159; "rfm12.c"  chksum&=0x0ff;
0101 0000 0000 01570         BANKSEL r0x1011
0103 0180      01571         CLRF    r0x1011
               01572 ;; gen.c:2261:resultRemat *{*
               01573 ;; gen.c:6521:genCast *{*
               01574 ;; ***  genCast  6522
               01575 ;;      721 register type nRegs=2
               01576 ;;      721 register type nRegs=1
               01577 ;;      line = 6530 result AOP_REG=r0x1057, size=1, left -=-, size=0, right AOP_REG=r0x105F, size=2
               01578 ;; ***  genCast  6636
               01579 ; >>> gen.c:6656:genCast
               01580 ;;      1109 rIdx = r0x105F 
               01581         .line   160; "rfm12.c"  if(chksum!=(unsigned char)d){   // last byte is checksum
0104 0800      01582         MOVF    r0x1013,W
0105 0080      01583         MOVWF   r0x100D
0106 0080      01584         MOVWF   r0x1013
               01585 ;; ***  pic14_getDataSize  1426
               01586 ;; ***  addSign  797
               01587 ;; genarith.c:798:addSign *{*
               01588 ; >>> genarith.c:817:addSign
               01589 ;;      1109 rIdx = r0x1060 
0107 0180      01590         CLRF    r0x1014
               01591 ;; gen.c:2261:resultRemat *{*
               01592 ;; gen.c:3504:ifxForOp *{*
               01593 ;; ***  ifxForOp  3506
               01594 ;; gen.c:3388:genCmpEq *{*
               01595 ;; ***  genCmpEq  3389
               01596 ;; ifx is non-null
               01597 ;;      721 register type nRegs=2
               01598 ;;      721 register type nRegs=2
               01599 ;;      line = 3400 result AOP_CRY=0x00, size=0, left AOP_REG=r0x105C, size=2, right AOP_REG=r0x105F, size=2
               01600 ;; ***  mov2w  1356  offset=0
               01601 ; >>> gen.c:1361:mov2w
               01602 ;;      1109 rIdx = r0x105F 
0108 0800      01603         MOVF    r0x1013,W
               01604 ; >>> gen.c:3469:genCmpEq
               01605 ;;      1109 rIdx = r0x105C 
0109 0600      01606         XORWF   r0x1010,W
               01607 ; >>> gen.c:3471:genCmpEq
010A 1D03      01608         BTFSS   STATUS,2
               01609 ; >>> gen.c:3473:genCmpEq
               01610 ;; ***  popGetLabel  key=25, label offset 54
010B 2800      01611         GOTO    _00179_DS_
               01612 ;; ***  mov2w  1356  offset=1
               01613 ; >>> gen.c:1361:mov2w
               01614 ;;      1109 rIdx = r0x1060 
010C 0800      01615         MOVF    r0x1014,W
               01616 ; >>> gen.c:3469:genCmpEq
gpasm-0.13.7 beta               rfm12.asm   8-8-2010  12:38:54           PAGE 31


LOC  OBJECT CODE     LINE SOURCE TEXT
  VALUE
 
               01617 ;;      1109 rIdx = r0x105D 
               01618         .line   161; "rfm12.c"  RB7=1;                        // checksum error!!!
010D 0600      01619         XORWF   r0x1011,W
               01620         .line   163; "rfm12.c"  rfm12_dis_rx();
010E 1903      01621         BTFSC   STATUS,2
010F 2800      01622         GOTO    _00002_DS_
0110 01623 _00179_DS_
0110 0000 0000 01624         BANKSEL _PORTB_bits
0112 1780      01625         BSF     _PORTB_bits,7
0113 01626 _00002_DS_
0113 01627         PAGESEL _rfm12_dis_rx
0113 2000      01628         CALL    _rfm12_dis_rx
               01629 ; >>> gen.c:2123:genCall
0114 01630         PAGESEL $
               01631 ;; gen.c:1809:unsaveRegisters *{*
               01632 ;; ***  unsaveRegisters  1811
               01633 ;; gen.c:2261:resultRemat *{*
               01634 ;; gen.c:6332:genAssign *{*
               01635 ;; ***  genAssign  6333
               01636 ;;      721 register type nRegs=1
               01637 ;;      line = 6342 result AOP_REG=r0x1057, size=1, left -=-, size=0, right AOP_LIT=0x01, size=1
               01638 ;; ***  genAssign  6434
               01639 ; >>> gen.c:6439:genAssign
               01640         .line   164; "rfm12.c"  delay_us(5);
0114 3001      01641         MOVLW   0x01
               01642 ; >>> gen.c:6441:genAssign
               01643 ;;      1109 rIdx = r0x1057 
0115 0000 0000 01644         BANKSEL r0x100D
0117 0080      01645         MOVWF   r0x100D
               01646 ;; gen.c:2261:resultRemat *{*
               01647 ;; gen.c:2597:genLabel *{*
               01648 ;; ***  genLabel  2600
               01649 ;; gen.c:2261:resultRemat *{*
               01650 ;; gen.c:3504:ifxForOp *{*
               01651 ;; ***  ifxForOp  3506
               01652 ;; gen.c:6695:genDjnz *{*
               01653 ;; ***  genDjnz  6696
               01654 ;;      721 register type nRegs=1
               01655 ; >>> gen.c:6726:genDjnz
               01656 ;;      1109 rIdx = r0x1057 
0118 01657 _00161_DS_
0118 0000 0000 01658         BANKSEL r0x100D
011A 0B80      01659         DECFSZ  r0x100D,F
               01660 ; >>> gen.c:6727:genDjnz
               01661 ;; ***  popGetLabel  key=7, label offset 54
011B 2800      01662         GOTO    _00161_DS_
               01663 ;; gen.c:2261:resultRemat *{*
               01664 ;; gen.c:2261:resultRemat *{*
               01665 ;; gen.c:2030:genCall *{*
               01666 ;; ***  genCall  2032
               01667 ;; gen.c:1765:saveRegisters *{*
               01668 ;; ***  saveRegisters  1767
               01669 ; >>> gen.c:2116:genCall
               01670         .line   165; "rfm12.c"  rfm12_ena_rx();
gpasm-0.13.7 beta               rfm12.asm   8-8-2010  12:38:54           PAGE 32


LOC  OBJECT CODE     LINE SOURCE TEXT
  VALUE
 
011C 01671         PAGESEL _rfm12_ena_rx
               01672 ; >>> gen.c:2118:genCall
011C 2000      01673         CALL    _rfm12_ena_rx
               01674 ; >>> gen.c:2123:genCall
011D 01675         PAGESEL $
               01676 ;; gen.c:1809:unsaveRegisters *{*
               01677 ;; ***  unsaveRegisters  1811
               01678 ;; gen.c:2261:resultRemat *{*
               01679 ;; gen.c:2597:genLabel *{*
               01680 ;; ***  genLabel  2600
               01681 ;; gen.c:2261:resultRemat *{*
               01682 ;; gen.c:2435:genEndFunction *{*
               01683 ;; ***  genEndFunction  2437
011D 01684 _00168_DS_
011D 0008      01685         RETURN  
               01686 ; exit point of _rfm12_rcv_msg
               01687 ;; gen.c:6803:genpic14Code *{*
               01688 
               01689 ;***
               01690 ;  pBlock Stats: dbName = C
               01691 ;***
               01692 ;entry:  _rfm12_snd_msg ;Function start
               01693 ; 2 exit points
               01694 ;has an exit
               01695 ;functions called:
               01696 ;   _rfm12_spi16
               01697 ;   _rfm12_wait
               01698 ;   _rfm12_spi16
               01699 ;   _rfm12_wait
               01700 ;   _rfm12_spi16
               01701 ;   _rfm12_wait
               01702 ;   _rfm12_spi16
               01703 ;   _rfm12_wait
               01704 ;   _rfm12_spi16
               01705 ;   _rfm12_wait
               01706 ;   _rfm12_spi16
               01707 ;   _rfm12_wait
               01708 ;   __gptrget1
               01709 ;   _rfm12_spi16
               01710 ;   _rfm12_wait
               01711 ;   __gptrget1
               01712 ;   _rfm12_spi16
               01713 ;   _rfm12_wait
               01714 ;   _rfm12_spi16
               01715 ;   _rfm12_wait
               01716 ;   _rfm12_spi16
               01717 ;   _rfm12_wait
               01718 ;   _rfm12_spi16
               01719 ;   _rfm12_wait
               01720 ;   _rfm12_spi16
               01721 ;   _delay_ms
               01722 ;   _rfm12_spi16
               01723 ;   _rfm12_wait
               01724 ;   _rfm12_spi16
gpasm-0.13.7 beta               rfm12.asm   8-8-2010  12:38:54           PAGE 33


LOC  OBJECT CODE     LINE SOURCE TEXT
  VALUE
 
               01725 ;   _rfm12_wait
               01726 ;   _rfm12_spi16
               01727 ;   _rfm12_wait
               01728 ;   _rfm12_spi16
               01729 ;   _rfm12_wait
               01730 ;   _rfm12_spi16
               01731 ;   _rfm12_wait
               01732 ;   _rfm12_spi16
               01733 ;   _rfm12_wait
               01734 ;   __gptrget1
               01735 ;   _rfm12_spi16
               01736 ;   _rfm12_wait
               01737 ;   __gptrget1
               01738 ;   _rfm12_spi16
               01739 ;   _rfm12_wait
               01740 ;   _rfm12_spi16
               01741 ;   _rfm12_wait
               01742 ;   _rfm12_spi16
               01743 ;   _rfm12_wait
               01744 ;   _rfm12_spi16
               01745 ;   _rfm12_wait
               01746 ;   _rfm12_spi16
               01747 ;   _delay_ms
               01748 ;19 compiler assigned registers:
               01749 ;   r0x1019
               01750 ;   STK00
               01751 ;   r0x101A
               01752 ;   STK01
               01753 ;   r0x101B
               01754 ;   STK02
               01755 ;   r0x101C
               01756 ;   STK03
               01757 ;   r0x101D
               01758 ;   r0x101E
               01759 ;   r0x101F
               01760 ;   r0x1020
               01761 ;   r0x1021
               01762 ;   r0x1022
               01763 ;   r0x1023
               01764 ;   r0x1024
               01765 ;   r0x1025
               01766 ;   r0x1026
               01767 ;   r0x1027
               01768 ;; Starting pCode block
               01769 ;; gen.c:2261:resultRemat *{*
               01770 ;; gen.c:2597:genLabel *{*
               01771 ;; ***  genLabel  2600
               01772 ;; gen.c:2261:resultRemat *{*
               01773 ;; gen.c:2283:genFunction *{*
               01774 ;; ***  genFunction  2285 curr label offset=4previous max_key=0 
011E 01775 _rfm12_snd_msg  ;Function start
               01776 ; 2 exit points
               01777 ;; gen.c:2261:resultRemat *{*
               01778 ;; gen.c:6739:genReceive *{*
gpasm-0.13.7 beta               rfm12.asm   8-8-2010  12:38:54           PAGE 34


LOC  OBJECT CODE     LINE SOURCE TEXT
  VALUE
 
               01779 ;; ***  genReceive  6740
               01780 ;;      721 register type nRegs=3
               01781 ;; gen.c:1866:assignResultValue *{*
               01782 ;; ***  assignResultValue  1868
               01783 ;;      line = 1870 result -=-, size=0, left AOP_REG=r0x1048, size=3, right -=-, size=0
               01784 ; >>> gen.c:1367:movwf
               01785 ;;      1109 rIdx = r0x104A 
               01786         .line   78; "rfm12.c"   unsigned char rfm12_snd_msg(unsigned char *msg,int len){
011E 0000 0000 01787         BANKSEL r0x1019
0120 0080      01788         MOVWF   r0x1019
               01789 ; >>> gen.c:1393:get_returnvalue
               01790 ;; ***  popRegFromIdx,1043  , rIdx=0x7f
0121 0800      01791         MOVF    STK00,W
               01792 ; >>> gen.c:1367:movwf
               01793 ;;      1109 rIdx = r0x1049 
0122 0080      01794         MOVWF   r0x101A
               01795 ; >>> gen.c:1393:get_returnvalue
               01796 ;; ***  popRegFromIdx,1043  , rIdx=0x7e
0123 0800      01797         MOVF    STK01,W
               01798 ; >>> gen.c:1367:movwf
               01799 ;;      1109 rIdx = r0x1048 
0124 0080      01800         MOVWF   r0x101B
               01801 ;; gen.c:2261:resultRemat *{*
               01802 ;; gen.c:6739:genReceive *{*
               01803 ;; ***  genReceive  6740
               01804 ;;      721 register type nRegs=2
               01805 ;; gen.c:1866:assignResultValue *{*
               01806 ;; ***  assignResultValue  1868
               01807 ;;      line = 1870 result -=-, size=0, left AOP_REG=r0x104B, size=2, right -=-, size=0
               01808 ; >>> gen.c:1393:get_returnvalue
               01809 ;; ***  popRegFromIdx,1043  , rIdx=0x7d
0125 0800      01810         MOVF    STK02,W
               01811 ; >>> gen.c:1367:movwf
               01812 ;;      1109 rIdx = r0x104C 
0126 0080      01813         MOVWF   r0x101C
               01814 ; >>> gen.c:1393:get_returnvalue
               01815 ;; ***  popRegFromIdx,1043  , rIdx=0x7c
0127 0800      01816         MOVF    STK03,W
               01817 ; >>> gen.c:1367:movwf
               01818 ;;      1109 rIdx = r0x104B 
0128 0080      01819         MOVWF   r0x101D
               01820 ;; gen.c:2261:resultRemat *{*
               01821 ;; gen.c:6332:genAssign *{*
               01822 ;; ***  genAssign  6333
               01823 ;;      721 register type nRegs=2
               01824 ;;      line = 6342 result AOP_REG=r0x104D, size=2, left -=-, size=0, right AOP_LIT=0x00, size=2
               01825 ;; ***  genAssign  6434
               01826 ; >>> gen.c:6443:genAssign
               01827 ;;      1109 rIdx = r0x104D 
               01828         .line   79; "rfm12.c"   unsigned int d,chksum=0;
0129 0180      01829         CLRF    r0x101E
               01830 ;; ***  genAssign  6434
               01831 ; >>> gen.c:6443:genAssign
               01832 ;;      1109 rIdx = r0x104E 
gpasm-0.13.7 beta               rfm12.asm   8-8-2010  12:38:54           PAGE 35


LOC  OBJECT CODE     LINE SOURCE TEXT
  VALUE
 
012A 0180      01833         CLRF    r0x101F
               01834 ;; gen.c:2261:resultRemat *{*
               01835 ;; gen.c:2261:resultRemat *{*
               01836 ;; gen.c:2030:genCall *{*
               01837 ;; ***  genCall  2032
               01838 ;; gen.c:1765:saveRegisters *{*
               01839 ;; ***  saveRegisters  1767
               01840 ;;      2079 left AOP_LIT
               01841 ;; gen.c:1324:mov2w_op *{*
               01842 ; >>> gen.c:1339:mov2w_op
               01843         .line   82; "rfm12.c"   d=rfm12_spi16(0x8238);          // Tx on
012B 3038      01844         MOVLW   0x38
               01845 ;;      2079 left AOP_LIT
               01846 ; >>> gen.c:2087:genCall
               01847 ;; ***  popRegFromIdx,1043  , rIdx=0x7f
012C 0080      01848         MOVWF   STK00
               01849 ;; gen.c:1324:mov2w_op *{*
               01850 ; >>> gen.c:1339:mov2w_op
012D 3082      01851         MOVLW   0x82
               01852 ; >>> gen.c:2116:genCall
012E 01853         PAGESEL _rfm12_spi16
               01854 ; >>> gen.c:2118:genCall
012E 2000      01855         CALL    _rfm12_spi16
               01856 ; >>> gen.c:2123:genCall
012F 01857         PAGESEL $
               01858 ;; gen.c:1809:unsaveRegisters *{*
               01859 ;; ***  unsaveRegisters  1811
               01860 ;; gen.c:2261:resultRemat *{*
               01861 ;; gen.c:2261:resultRemat *{*
               01862 ;; gen.c:2030:genCall *{*
               01863 ;; ***  genCall  2032
               01864 ;; gen.c:1765:saveRegisters *{*
               01865 ;; ***  saveRegisters  1767
               01866 ;;      2079 left AOP_LIT
               01867 ;; gen.c:1324:mov2w_op *{*
               01868 ; >>> gen.c:1339:mov2w_op
               01869         .line   83; "rfm12.c"   if(0==rfm12_wait(RFM12_TOUT))
012F 30E8      01870         MOVLW   0xe8
               01871 ;;      2079 left AOP_LIT
               01872 ; >>> gen.c:2087:genCall
               01873 ;; ***  popRegFromIdx,1043  , rIdx=0x7f
0130 0080      01874         MOVWF   STK00
               01875 ;; gen.c:1324:mov2w_op *{*
               01876 ; >>> gen.c:1339:mov2w_op
0131 3003      01877         MOVLW   0x03
               01878 ; >>> gen.c:2116:genCall
0132 01879         PAGESEL _rfm12_wait
               01880 ; >>> gen.c:2118:genCall
0132 2000      01881         CALL    _rfm12_wait
               01882 ; >>> gen.c:2123:genCall
0133 01883         PAGESEL $
               01884 ;;      721 register type nRegs=1
               01885 ;; gen.c:1866:assignResultValue *{*
               01886 ;; ***  assignResultValue  1868
gpasm-0.13.7 beta               rfm12.asm   8-8-2010  12:38:54           PAGE 36


LOC  OBJECT CODE     LINE SOURCE TEXT
  VALUE
 
               01887 ;;      line = 1870 result -=-, size=0, left AOP_REG=r0x104F, size=1, right -=-, size=0
               01888 ; >>> gen.c:1367:movwf
               01889 ;;      1109 rIdx = r0x104F 
0133 0000 0000 01890         BANKSEL r0x1020
0135 0080      01891         MOVWF   r0x1020
               01892 ;;      2138 left AOP_REG
               01893 ;; gen.c:1809:unsaveRegisters *{*
               01894 ;; ***  unsaveRegisters  1811
               01895 ;; gen.c:2261:resultRemat *{*
               01896 ;; gen.c:3504:ifxForOp *{*
               01897 ;; ***  ifxForOp  3506
               01898 ;; gen.c:3388:genCmpEq *{*
               01899 ;; ***  genCmpEq  3389
               01900 ;; ifx is non-null
               01901 ;;      721 register type nRegs=1
               01902 ;;      line = 3400 result AOP_CRY=0x00, size=0, left AOP_LIT=0x00, size=1, right AOP_REG=r0x104F, size=1
               01903 ;; ***  mov2w  1356  offset=0
               01904 ; >>> gen.c:1361:mov2w
               01905 ;;      1109 rIdx = r0x104F 
0136 0800      01906         MOVF    r0x1020,W
               01907 ; >>> gen.c:3443:genCmpEq
0137 1D03      01908         BTFSS   STATUS,2
               01909 ; >>> gen.c:3445:genCmpEq
               01910 ;; ***  popGetLabel  key=2, label offset 8
0138 2800      01911         GOTO    _00110_DS_
               01912 ;; gen.c:2261:resultRemat *{*
               01913 ;; gen.c:2261:resultRemat *{*
               01914 ;; gen.c:2561:genRet *{*
               01915 ;; ***  genRet  2563
               01916 ;; gen.c:1324:mov2w_op *{*
               01917 ; >>> gen.c:1339:mov2w_op
               01918         .line   84; "rfm12.c"   return 0;
0139 3000      01919         MOVLW   0x00
               01920 ; >>> gen.c:2587:genRet
               01921 ;; ***  popGetLabel  key=27, label offset 8
013A 2800      01922         GOTO    _00135_DS_
               01923 ;; gen.c:2261:resultRemat *{*
               01924 ;; gen.c:2597:genLabel *{*
               01925 ;; ***  genLabel  2600
               01926 ;; gen.c:2261:resultRemat *{*
               01927 ;; gen.c:2261:resultRemat *{*
               01928 ;; gen.c:2030:genCall *{*
               01929 ;; ***  genCall  2032
               01930 ;; gen.c:1765:saveRegisters *{*
               01931 ;; ***  saveRegisters  1767
               01932 ;;      2079 left AOP_LIT
               01933 ;; gen.c:1324:mov2w_op *{*
               01934 ; >>> gen.c:1339:mov2w_op
013B 01935 _00110_DS_
               01936         .line   85; "rfm12.c"   d=rfm12_spi16(0xb8aa);          // Preamble
013B 30AA      01937         MOVLW   0xaa
               01938 ;;      2079 left AOP_LIT
               01939 ; >>> gen.c:2087:genCall
               01940 ;; ***  popRegFromIdx,1043  , rIdx=0x7f
gpasm-0.13.7 beta               rfm12.asm   8-8-2010  12:38:54           PAGE 37


LOC  OBJECT CODE     LINE SOURCE TEXT
  VALUE
 
013C 0080      01941         MOVWF   STK00
               01942 ;; gen.c:1324:mov2w_op *{*
               01943 ; >>> gen.c:1339:mov2w_op
013D 30B8      01944         MOVLW   0xb8
               01945 ; >>> gen.c:2116:genCall
013E 01946         PAGESEL _rfm12_spi16
               01947 ; >>> gen.c:2118:genCall
013E 2000      01948         CALL    _rfm12_spi16
               01949 ; >>> gen.c:2123:genCall
013F 01950         PAGESEL $
               01951 ;; gen.c:1809:unsaveRegisters *{*
               01952 ;; ***  unsaveRegisters  1811
               01953 ;; gen.c:2261:resultRemat *{*
               01954 ;; gen.c:2261:resultRemat *{*
               01955 ;; gen.c:2030:genCall *{*
               01956 ;; ***  genCall  2032
               01957 ;; gen.c:1765:saveRegisters *{*
               01958 ;; ***  saveRegisters  1767
               01959 ;;      2079 left AOP_LIT
               01960 ;; gen.c:1324:mov2w_op *{*
               01961 ; >>> gen.c:1339:mov2w_op
               01962         .line   86; "rfm12.c"   if(0==rfm12_wait(RFM12_TOUT))
013F 30E8      01963         MOVLW   0xe8
               01964 ;;      2079 left AOP_LIT
               01965 ; >>> gen.c:2087:genCall
               01966 ;; ***  popRegFromIdx,1043  , rIdx=0x7f
0140 0080      01967         MOVWF   STK00
               01968 ;; gen.c:1324:mov2w_op *{*
               01969 ; >>> gen.c:1339:mov2w_op
0141 3003      01970         MOVLW   0x03
               01971 ; >>> gen.c:2116:genCall
0142 01972         PAGESEL _rfm12_wait
               01973 ; >>> gen.c:2118:genCall
0142 2000      01974         CALL    _rfm12_wait
               01975 ; >>> gen.c:2123:genCall
0143 01976         PAGESEL $
               01977 ;;      721 register type nRegs=1
               01978 ;; gen.c:1866:assignResultValue *{*
               01979 ;; ***  assignResultValue  1868
               01980 ;;      line = 1870 result -=-, size=0, left AOP_REG=r0x104F, size=1, right -=-, size=0
               01981 ; >>> gen.c:1367:movwf
               01982 ;;      1109 rIdx = r0x104F 
0143 0000 0000 01983         BANKSEL r0x1020
0145 0080      01984         MOVWF   r0x1020
               01985 ;;      2138 left AOP_REG
               01986 ;; gen.c:1809:unsaveRegisters *{*
               01987 ;; ***  unsaveRegisters  1811
               01988 ;; gen.c:2261:resultRemat *{*
               01989 ;; gen.c:3504:ifxForOp *{*
               01990 ;; ***  ifxForOp  3506
               01991 ;; gen.c:3388:genCmpEq *{*
               01992 ;; ***  genCmpEq  3389
               01993 ;; ifx is non-null
               01994 ;;      721 register type nRegs=1
gpasm-0.13.7 beta               rfm12.asm   8-8-2010  12:38:54           PAGE 38


LOC  OBJECT CODE     LINE SOURCE TEXT
  VALUE
 
               01995 ;;      line = 3400 result AOP_CRY=0x00, size=0, left AOP_LIT=0x00, size=1, right AOP_REG=r0x104F, size=1
               01996 ;; ***  mov2w  1356  offset=0
               01997 ; >>> gen.c:1361:mov2w
               01998 ;;      1109 rIdx = r0x104F 
0146 0800      01999         MOVF    r0x1020,W
               02000 ; >>> gen.c:3443:genCmpEq
0147 1D03      02001         BTFSS   STATUS,2
               02002 ; >>> gen.c:3445:genCmpEq
               02003 ;; ***  popGetLabel  key=4, label offset 8
0148 2800      02004         GOTO    _00112_DS_
               02005 ;; gen.c:2261:resultRemat *{*
               02006 ;; gen.c:2261:resultRemat *{*
               02007 ;; gen.c:2561:genRet *{*
               02008 ;; ***  genRet  2563
               02009 ;; gen.c:1324:mov2w_op *{*
               02010 ; >>> gen.c:1339:mov2w_op
               02011         .line   87; "rfm12.c"   return 0;
0149 3000      02012         MOVLW   0x00
               02013 ; >>> gen.c:2587:genRet
               02014 ;; ***  popGetLabel  key=27, label offset 8
014A 2800      02015         GOTO    _00135_DS_
               02016 ;; gen.c:2261:resultRemat *{*
               02017 ;; gen.c:2597:genLabel *{*
               02018 ;; ***  genLabel  2600
               02019 ;; gen.c:2261:resultRemat *{*
               02020 ;; gen.c:2261:resultRemat *{*
               02021 ;; gen.c:2030:genCall *{*
               02022 ;; ***  genCall  2032
               02023 ;; gen.c:1765:saveRegisters *{*
               02024 ;; ***  saveRegisters  1767
               02025 ;;      2079 left AOP_LIT
               02026 ;; gen.c:1324:mov2w_op *{*
               02027 ; >>> gen.c:1339:mov2w_op
014B 02028 _00112_DS_
               02029         .line   88; "rfm12.c"   d=rfm12_spi16(0xb8aa);          // Preamble
014B 30AA      02030         MOVLW   0xaa
               02031 ;;      2079 left AOP_LIT
               02032 ; >>> gen.c:2087:genCall
               02033 ;; ***  popRegFromIdx,1043  , rIdx=0x7f
014C 0080      02034         MOVWF   STK00
               02035 ;; gen.c:1324:mov2w_op *{*
               02036 ; >>> gen.c:1339:mov2w_op
014D 30B8      02037         MOVLW   0xb8
               02038 ; >>> gen.c:2116:genCall
014E 02039         PAGESEL _rfm12_spi16
               02040 ; >>> gen.c:2118:genCall
014E 2000      02041         CALL    _rfm12_spi16
               02042 ; >>> gen.c:2123:genCall
014F 02043         PAGESEL $
               02044 ;; gen.c:1809:unsaveRegisters *{*
               02045 ;; ***  unsaveRegisters  1811
               02046 ;; gen.c:2261:resultRemat *{*
               02047 ;; gen.c:2261:resultRemat *{*
               02048 ;; gen.c:2030:genCall *{*
gpasm-0.13.7 beta               rfm12.asm   8-8-2010  12:38:54           PAGE 39


LOC  OBJECT CODE     LINE SOURCE TEXT
  VALUE
 
               02049 ;; ***  genCall  2032
               02050 ;; gen.c:1765:saveRegisters *{*
               02051 ;; ***  saveRegisters  1767
               02052 ;;      2079 left AOP_LIT
               02053 ;; gen.c:1324:mov2w_op *{*
               02054 ; >>> gen.c:1339:mov2w_op
               02055         .line   89; "rfm12.c"   if(0==rfm12_wait(RFM12_TOUT))
014F 30E8      02056         MOVLW   0xe8
               02057 ;;      2079 left AOP_LIT
               02058 ; >>> gen.c:2087:genCall
               02059 ;; ***  popRegFromIdx,1043  , rIdx=0x7f
0150 0080      02060         MOVWF   STK00
               02061 ;; gen.c:1324:mov2w_op *{*
               02062 ; >>> gen.c:1339:mov2w_op
0151 3003      02063         MOVLW   0x03
               02064 ; >>> gen.c:2116:genCall
0152 02065         PAGESEL _rfm12_wait
               02066 ; >>> gen.c:2118:genCall
0152 2000      02067         CALL    _rfm12_wait
               02068 ; >>> gen.c:2123:genCall
0153 02069         PAGESEL $
               02070 ;;      721 register type nRegs=1
               02071 ;; gen.c:1866:assignResultValue *{*
               02072 ;; ***  assignResultValue  1868
               02073 ;;      line = 1870 result -=-, size=0, left AOP_REG=r0x104F, size=1, right -=-, size=0
               02074 ; >>> gen.c:1367:movwf
               02075 ;;      1109 rIdx = r0x104F 
0153 0000 0000 02076         BANKSEL r0x1020
0155 0080      02077         MOVWF   r0x1020
               02078 ;;      2138 left AOP_REG
               02079 ;; gen.c:1809:unsaveRegisters *{*
               02080 ;; ***  unsaveRegisters  1811
               02081 ;; gen.c:2261:resultRemat *{*
               02082 ;; gen.c:3504:ifxForOp *{*
               02083 ;; ***  ifxForOp  3506
               02084 ;; gen.c:3388:genCmpEq *{*
               02085 ;; ***  genCmpEq  3389
               02086 ;; ifx is non-null
               02087 ;;      721 register type nRegs=1
               02088 ;;      line = 3400 result AOP_CRY=0x00, size=0, left AOP_LIT=0x00, size=1, right AOP_REG=r0x104F, size=1
               02089 ;; ***  mov2w  1356  offset=0
               02090 ; >>> gen.c:1361:mov2w
               02091 ;;      1109 rIdx = r0x104F 
0156 0800      02092         MOVF    r0x1020,W
               02093 ; >>> gen.c:3443:genCmpEq
0157 1D03      02094         BTFSS   STATUS,2
               02095 ; >>> gen.c:3445:genCmpEq
               02096 ;; ***  popGetLabel  key=6, label offset 8
0158 2800      02097         GOTO    _00114_DS_
               02098 ;; gen.c:2261:resultRemat *{*
               02099 ;; gen.c:2261:resultRemat *{*
               02100 ;; gen.c:2561:genRet *{*
               02101 ;; ***  genRet  2563
               02102 ;; gen.c:1324:mov2w_op *{*
gpasm-0.13.7 beta               rfm12.asm   8-8-2010  12:38:54           PAGE 40


LOC  OBJECT CODE     LINE SOURCE TEXT
  VALUE
 
               02103 ; >>> gen.c:1339:mov2w_op
               02104         .line   90; "rfm12.c"   return 0;
0159 3000      02105         MOVLW   0x00
               02106 ; >>> gen.c:2587:genRet
               02107 ;; ***  popGetLabel  key=27, label offset 8
015A 2800      02108         GOTO    _00135_DS_
               02109 ;; gen.c:2261:resultRemat *{*
               02110 ;; gen.c:2597:genLabel *{*
               02111 ;; ***  genLabel  2600
               02112 ;; gen.c:2261:resultRemat *{*
               02113 ;; gen.c:2261:resultRemat *{*
               02114 ;; gen.c:2030:genCall *{*
               02115 ;; ***  genCall  2032
               02116 ;; gen.c:1765:saveRegisters *{*
               02117 ;; ***  saveRegisters  1767
               02118 ;;      2079 left AOP_LIT
               02119 ;; gen.c:1324:mov2w_op *{*
               02120 ; >>> gen.c:1339:mov2w_op
015B 02121 _00114_DS_
               02122         .line   91; "rfm12.c"   d=rfm12_spi16(0xb8aa);          // Preamble
015B 30AA      02123         MOVLW   0xaa
               02124 ;;      2079 left AOP_LIT
               02125 ; >>> gen.c:2087:genCall
               02126 ;; ***  popRegFromIdx,1043  , rIdx=0x7f
015C 0080      02127         MOVWF   STK00
               02128 ;; gen.c:1324:mov2w_op *{*
               02129 ; >>> gen.c:1339:mov2w_op
015D 30B8      02130         MOVLW   0xb8
               02131 ; >>> gen.c:2116:genCall
015E 02132         PAGESEL _rfm12_spi16
               02133 ; >>> gen.c:2118:genCall
015E 2000      02134         CALL    _rfm12_spi16
               02135 ; >>> gen.c:2123:genCall
015F 02136         PAGESEL $
               02137 ;; gen.c:1809:unsaveRegisters *{*
               02138 ;; ***  unsaveRegisters  1811
               02139 ;; gen.c:2261:resultRemat *{*
               02140 ;; gen.c:2261:resultRemat *{*
               02141 ;; gen.c:2030:genCall *{*
               02142 ;; ***  genCall  2032
               02143 ;; gen.c:1765:saveRegisters *{*
               02144 ;; ***  saveRegisters  1767
               02145 ;;      2079 left AOP_LIT
               02146 ;; gen.c:1324:mov2w_op *{*
               02147 ; >>> gen.c:1339:mov2w_op
               02148         .line   92; "rfm12.c"   if(0==rfm12_wait(RFM12_TOUT))
015F 30E8      02149         MOVLW   0xe8
               02150 ;;      2079 left AOP_LIT
               02151 ; >>> gen.c:2087:genCall
               02152 ;; ***  popRegFromIdx,1043  , rIdx=0x7f
0160 0080      02153         MOVWF   STK00
               02154 ;; gen.c:1324:mov2w_op *{*
               02155 ; >>> gen.c:1339:mov2w_op
0161 3003      02156         MOVLW   0x03
gpasm-0.13.7 beta               rfm12.asm   8-8-2010  12:38:54           PAGE 41


LOC  OBJECT CODE     LINE SOURCE TEXT
  VALUE
 
               02157 ; >>> gen.c:2116:genCall
0162 02158         PAGESEL _rfm12_wait
               02159 ; >>> gen.c:2118:genCall
0162 2000      02160         CALL    _rfm12_wait
               02161 ; >>> gen.c:2123:genCall
0163 02162         PAGESEL $
               02163 ;;      721 register type nRegs=1
               02164 ;; gen.c:1866:assignResultValue *{*
               02165 ;; ***  assignResultValue  1868
               02166 ;;      line = 1870 result -=-, size=0, left AOP_REG=r0x104F, size=1, right -=-, size=0
               02167 ; >>> gen.c:1367:movwf
               02168 ;;      1109 rIdx = r0x104F 
0163 0000 0000 02169         BANKSEL r0x1020
0165 0080      02170         MOVWF   r0x1020
               02171 ;;      2138 left AOP_REG
               02172 ;; gen.c:1809:unsaveRegisters *{*
               02173 ;; ***  unsaveRegisters  1811
               02174 ;; gen.c:2261:resultRemat *{*
               02175 ;; gen.c:3504:ifxForOp *{*
               02176 ;; ***  ifxForOp  3506
               02177 ;; gen.c:3388:genCmpEq *{*
               02178 ;; ***  genCmpEq  3389
               02179 ;; ifx is non-null
               02180 ;;      721 register type nRegs=1
               02181 ;;      line = 3400 result AOP_CRY=0x00, size=0, left AOP_LIT=0x00, size=1, right AOP_REG=r0x104F, size=1
               02182 ;; ***  mov2w  1356  offset=0
               02183 ; >>> gen.c:1361:mov2w
               02184 ;;      1109 rIdx = r0x104F 
0166 0800      02185         MOVF    r0x1020,W
               02186 ; >>> gen.c:3443:genCmpEq
0167 1D03      02187         BTFSS   STATUS,2
               02188 ; >>> gen.c:3445:genCmpEq
               02189 ;; ***  popGetLabel  key=8, label offset 8
0168 2800      02190         GOTO    _00116_DS_
               02191 ;; gen.c:2261:resultRemat *{*
               02192 ;; gen.c:2261:resultRemat *{*
               02193 ;; gen.c:2561:genRet *{*
               02194 ;; ***  genRet  2563
               02195 ;; gen.c:1324:mov2w_op *{*
               02196 ; >>> gen.c:1339:mov2w_op
               02197         .line   93; "rfm12.c"   return 0;
0169 3000      02198         MOVLW   0x00
               02199 ; >>> gen.c:2587:genRet
               02200 ;; ***  popGetLabel  key=27, label offset 8
016A 2800      02201         GOTO    _00135_DS_
               02202 ;; gen.c:2261:resultRemat *{*
               02203 ;; gen.c:2597:genLabel *{*
               02204 ;; ***  genLabel  2600
               02205 ;; gen.c:2261:resultRemat *{*
               02206 ;; gen.c:2261:resultRemat *{*
               02207 ;; gen.c:2030:genCall *{*
               02208 ;; ***  genCall  2032
               02209 ;; gen.c:1765:saveRegisters *{*
               02210 ;; ***  saveRegisters  1767
gpasm-0.13.7 beta               rfm12.asm   8-8-2010  12:38:54           PAGE 42


LOC  OBJECT CODE     LINE SOURCE TEXT
  VALUE
 
               02211 ;;      2079 left AOP_LIT
               02212 ;; gen.c:1324:mov2w_op *{*
               02213 ; >>> gen.c:1339:mov2w_op
016B 02214 _00116_DS_
               02215         .line   94; "rfm12.c"   d=rfm12_spi16(0xb82d);          // Sync hi-byte
016B 302D      02216         MOVLW   0x2d
               02217 ;;      2079 left AOP_LIT
               02218 ; >>> gen.c:2087:genCall
               02219 ;; ***  popRegFromIdx,1043  , rIdx=0x7f
016C 0080      02220         MOVWF   STK00
               02221 ;; gen.c:1324:mov2w_op *{*
               02222 ; >>> gen.c:1339:mov2w_op
016D 30B8      02223         MOVLW   0xb8
               02224 ; >>> gen.c:2116:genCall
016E 02225         PAGESEL _rfm12_spi16
               02226 ; >>> gen.c:2118:genCall
016E 2000      02227         CALL    _rfm12_spi16
               02228 ; >>> gen.c:2123:genCall
016F 02229         PAGESEL $
               02230 ;; gen.c:1809:unsaveRegisters *{*
               02231 ;; ***  unsaveRegisters  1811
               02232 ;; gen.c:2261:resultRemat *{*
               02233 ;; gen.c:2261:resultRemat *{*
               02234 ;; gen.c:2030:genCall *{*
               02235 ;; ***  genCall  2032
               02236 ;; gen.c:1765:saveRegisters *{*
               02237 ;; ***  saveRegisters  1767
               02238 ;;      2079 left AOP_LIT
               02239 ;; gen.c:1324:mov2w_op *{*
               02240 ; >>> gen.c:1339:mov2w_op
               02241         .line   95; "rfm12.c"   if(0==rfm12_wait(RFM12_TOUT))
016F 30E8      02242         MOVLW   0xe8
               02243 ;;      2079 left AOP_LIT
               02244 ; >>> gen.c:2087:genCall
               02245 ;; ***  popRegFromIdx,1043  , rIdx=0x7f
0170 0080      02246         MOVWF   STK00
               02247 ;; gen.c:1324:mov2w_op *{*
               02248 ; >>> gen.c:1339:mov2w_op
0171 3003      02249         MOVLW   0x03
               02250 ; >>> gen.c:2116:genCall
0172 02251         PAGESEL _rfm12_wait
               02252 ; >>> gen.c:2118:genCall
0172 2000      02253         CALL    _rfm12_wait
               02254 ; >>> gen.c:2123:genCall
0173 02255         PAGESEL $
               02256 ;;      721 register type nRegs=1
               02257 ;; gen.c:1866:assignResultValue *{*
               02258 ;; ***  assignResultValue  1868
               02259 ;;      line = 1870 result -=-, size=0, left AOP_REG=r0x104F, size=1, right -=-, size=0
               02260 ; >>> gen.c:1367:movwf
               02261 ;;      1109 rIdx = r0x104F 
0173 0000 0000 02262         BANKSEL r0x1020
0175 0080      02263         MOVWF   r0x1020
               02264 ;;      2138 left AOP_REG
gpasm-0.13.7 beta               rfm12.asm   8-8-2010  12:38:54           PAGE 43


LOC  OBJECT CODE     LINE SOURCE TEXT
  VALUE
 
               02265 ;; gen.c:1809:unsaveRegisters *{*
               02266 ;; ***  unsaveRegisters  1811
               02267 ;; gen.c:2261:resultRemat *{*
               02268 ;; gen.c:3504:ifxForOp *{*
               02269 ;; ***  ifxForOp  3506
               02270 ;; gen.c:3388:genCmpEq *{*
               02271 ;; ***  genCmpEq  3389
               02272 ;; ifx is non-null
               02273 ;;      721 register type nRegs=1
               02274 ;;      line = 3400 result AOP_CRY=0x00, size=0, left AOP_LIT=0x00, size=1, right AOP_REG=r0x104F, size=1
               02275 ;; ***  mov2w  1356  offset=0
               02276 ; >>> gen.c:1361:mov2w
               02277 ;;      1109 rIdx = r0x104F 
0176 0800      02278         MOVF    r0x1020,W
               02279 ; >>> gen.c:3443:genCmpEq
0177 1D03      02280         BTFSS   STATUS,2
               02281 ; >>> gen.c:3445:genCmpEq
               02282 ;; ***  popGetLabel  key=10, label offset 8
0178 2800      02283         GOTO    _00118_DS_
               02284 ;; gen.c:2261:resultRemat *{*
               02285 ;; gen.c:2261:resultRemat *{*
               02286 ;; gen.c:2561:genRet *{*
               02287 ;; ***  genRet  2563
               02288 ;; gen.c:1324:mov2w_op *{*
               02289 ; >>> gen.c:1339:mov2w_op
               02290         .line   96; "rfm12.c"   return 0;
0179 3000      02291         MOVLW   0x00
               02292 ; >>> gen.c:2587:genRet
               02293 ;; ***  popGetLabel  key=27, label offset 8
017A 2800      02294         GOTO    _00135_DS_
               02295 ;; gen.c:2261:resultRemat *{*
               02296 ;; gen.c:2597:genLabel *{*
               02297 ;; ***  genLabel  2600
               02298 ;; gen.c:2261:resultRemat *{*
               02299 ;; gen.c:2261:resultRemat *{*
               02300 ;; gen.c:2030:genCall *{*
               02301 ;; ***  genCall  2032
               02302 ;; gen.c:1765:saveRegisters *{*
               02303 ;; ***  saveRegisters  1767
               02304 ;;      2079 left AOP_LIT
               02305 ;; gen.c:1324:mov2w_op *{*
               02306 ; >>> gen.c:1339:mov2w_op
017B 02307 _00118_DS_
               02308         .line   97; "rfm12.c"   d=rfm12_spi16(0xb8d4);          // Sync low-byte
017B 30D4      02309         MOVLW   0xd4
               02310 ;;      2079 left AOP_LIT
               02311 ; >>> gen.c:2087:genCall
               02312 ;; ***  popRegFromIdx,1043  , rIdx=0x7f
017C 0080      02313         MOVWF   STK00
               02314 ;; gen.c:1324:mov2w_op *{*
               02315 ; >>> gen.c:1339:mov2w_op
017D 30B8      02316         MOVLW   0xb8
               02317 ; >>> gen.c:2116:genCall
017E 02318         PAGESEL _rfm12_spi16
gpasm-0.13.7 beta               rfm12.asm   8-8-2010  12:38:54           PAGE 44


LOC  OBJECT CODE     LINE SOURCE TEXT
  VALUE
 
               02319 ; >>> gen.c:2118:genCall
017E 2000      02320         CALL    _rfm12_spi16
               02321 ; >>> gen.c:2123:genCall
017F 02322         PAGESEL $
               02323 ;; gen.c:1809:unsaveRegisters *{*
               02324 ;; ***  unsaveRegisters  1811
               02325 ;; gen.c:2261:resultRemat *{*
               02326 ;; gen.c:2261:resultRemat *{*
               02327 ;; gen.c:2030:genCall *{*
               02328 ;; ***  genCall  2032
               02329 ;; gen.c:1765:saveRegisters *{*
               02330 ;; ***  saveRegisters  1767
               02331 ;;      2079 left AOP_LIT
               02332 ;; gen.c:1324:mov2w_op *{*
               02333 ; >>> gen.c:1339:mov2w_op
               02334         .line   98; "rfm12.c"   if(0==rfm12_wait(RFM12_TOUT))
017F 30E8      02335         MOVLW   0xe8
               02336 ;;      2079 left AOP_LIT
               02337 ; >>> gen.c:2087:genCall
               02338 ;; ***  popRegFromIdx,1043  , rIdx=0x7f
0180 0080      02339         MOVWF   STK00
               02340 ;; gen.c:1324:mov2w_op *{*
               02341 ; >>> gen.c:1339:mov2w_op
0181 3003      02342         MOVLW   0x03
               02343 ; >>> gen.c:2116:genCall
0182 02344         PAGESEL _rfm12_wait
               02345 ; >>> gen.c:2118:genCall
0182 2000      02346         CALL    _rfm12_wait
               02347 ; >>> gen.c:2123:genCall
0183 02348         PAGESEL $
               02349 ;;      721 register type nRegs=1
               02350 ;; gen.c:1866:assignResultValue *{*
               02351 ;; ***  assignResultValue  1868
               02352 ;;      line = 1870 result -=-, size=0, left AOP_REG=r0x104F, size=1, right -=-, size=0
               02353 ; >>> gen.c:1367:movwf
               02354 ;;      1109 rIdx = r0x104F 
0183 0000 0000 02355         BANKSEL r0x1020
0185 0080      02356         MOVWF   r0x1020
               02357 ;;      2138 left AOP_REG
               02358 ;; gen.c:1809:unsaveRegisters *{*
               02359 ;; ***  unsaveRegisters  1811
               02360 ;; gen.c:2261:resultRemat *{*
               02361 ;; gen.c:3504:ifxForOp *{*
               02362 ;; ***  ifxForOp  3506
               02363 ;; gen.c:3388:genCmpEq *{*
               02364 ;; ***  genCmpEq  3389
               02365 ;; ifx is non-null
               02366 ;;      721 register type nRegs=1
               02367 ;;      line = 3400 result AOP_CRY=0x00, size=0, left AOP_LIT=0x00, size=1, right AOP_REG=r0x104F, size=1
               02368 ;; ***  mov2w  1356  offset=0
               02369 ; >>> gen.c:1361:mov2w
               02370 ;;      1109 rIdx = r0x104F 
0186 0800      02371         MOVF    r0x1020,W
               02372 ; >>> gen.c:3443:genCmpEq
gpasm-0.13.7 beta               rfm12.asm   8-8-2010  12:38:54           PAGE 45


LOC  OBJECT CODE     LINE SOURCE TEXT
  VALUE
 
0187 1D03      02373         BTFSS   STATUS,2
               02374 ; >>> gen.c:3445:genCmpEq
               02375 ;; ***  popGetLabel  key=37, label offset 8
0188 2800      02376         GOTO    _00145_DS_
               02377 ;; gen.c:2261:resultRemat *{*
               02378 ;; gen.c:2261:resultRemat *{*
               02379 ;; gen.c:2561:genRet *{*
               02380 ;; ***  genRet  2563
               02381 ;; gen.c:1324:mov2w_op *{*
               02382 ; >>> gen.c:1339:mov2w_op
               02383         .line   99; "rfm12.c"   return 0;
0189 3000      02384         MOVLW   0x00
               02385 ; >>> gen.c:2587:genRet
               02386 ;; ***  popGetLabel  key=27, label offset 8
018A 2800      02387         GOTO    _00135_DS_
               02388 ;; gen.c:2261:resultRemat *{*
               02389 ;; gen.c:2597:genLabel *{*
               02390 ;; ***  genLabel  2600
               02391 ;; gen.c:2261:resultRemat *{*
               02392 ;; gen.c:6332:genAssign *{*
               02393 ;; ***  genAssign  6333
               02394 ;;      721 register type nRegs=1
               02395 ;;      line = 6342 result AOP_REG=r0x104F, size=1, left -=-, size=0, right AOP_LIT=0x00, size=1
               02396 ;; ***  genAssign  6434
               02397 ; >>> gen.c:6443:genAssign
               02398 ;;      1109 rIdx = r0x104F 
018B 02399 _00145_DS_
               02400         .line   102; "rfm12.c"  for(i=0;i<len;i++){
018B 0000 0000 02401         BANKSEL r0x1020
018D 0180      02402         CLRF    r0x1020
               02403 ;; gen.c:2261:resultRemat *{*
               02404 ;; gen.c:2597:genLabel *{*
               02405 ;; ***  genLabel  2600
               02406 ;; gen.c:2261:resultRemat *{*
               02407 ;; gen.c:6521:genCast *{*
               02408 ;; ***  genCast  6522
               02409 ;;      721 register type nRegs=1
               02410 ;;      721 register type nRegs=2
               02411 ;;      line = 6530 result AOP_REG=r0x1050, size=2, left -=-, size=0, right AOP_REG=r0x104F, size=1
               02412 ; >>> gen.c:6676:genCast
               02413 ;;      1109 rIdx = r0x104F 
018E 02414 _00131_DS_
018E 0000 0000 02415         BANKSEL r0x1020
0190 0800      02416         MOVF    r0x1020,W
               02417 ; >>> gen.c:6677:genCast
               02418 ;;      1109 rIdx = r0x1050 
0191 0080      02419         MOVWF   r0x1021
               02420 ;; ***  pic14_getDataSize  1426
               02421 ;; ***  addSign  797
               02422 ;; genarith.c:798:addSign *{*
               02423 ; >>> genarith.c:817:addSign
               02424 ;;      1109 rIdx = r0x1051 
0192 0180      02425         CLRF    r0x1022
               02426 ;; gen.c:2261:resultRemat *{*
gpasm-0.13.7 beta               rfm12.asm   8-8-2010  12:38:54           PAGE 46


LOC  OBJECT CODE     LINE SOURCE TEXT
  VALUE
 
               02427 ;; gen.c:3504:ifxForOp *{*
               02428 ;; ***  ifxForOp  3506
               02429 ;; gen.c:3357:genCmpLt *{*
               02430 ;; ***  genCmpLt  3358
               02431 ;;      721 register type nRegs=2
               02432 ;;      721 register type nRegs=2
               02433 ;; gen.c:3126:genCmp *{*
               02434 ;; ***  mov2w  1356  offset=1
               02435 ; >>> gen.c:1361:mov2w
               02436 ;;      1109 rIdx = r0x1051 
0193 3000      02437         MOVLW   0x00
               02438 ; >>> gen.c:3256:genCmp
0194 3E80      02439         ADDLW   0x80
               02440 ; >>> gen.c:3257:genCmp
0195 0080      02441         MOVWF   r0x1023
               02442 ;; ***  mov2w  1356  offset=1
               02443 ; >>> gen.c:1361:mov2w
               02444 ;;      1109 rIdx = r0x104C 
0196 0800      02445         MOVF    r0x101C,W
               02446 ; >>> gen.c:3259:genCmp
0197 3E80      02447         ADDLW   0x80
               02448 ; >>> gen.c:3260:genCmp
0198 0200      02449         SUBWF   r0x1023,W
               02450 ; >>> gen.c:3270:genCmp
0199 1D03      02451         BTFSS   STATUS,2
               02452 ; >>> gen.c:3271:genCmp
               02453 ;; ***  popGetLabel  key=42, label offset 8
019A 2800      02454         GOTO    _00150_DS_
               02455 ; >>> gen.c:3101:pic14_mov2w_regOrLit
               02456 ;;      1109 rIdx = r0x104B 
019B 0800      02457         MOVF    r0x101D,W
               02458 ; >>> gen.c:3273:genCmp
               02459 ;;      1109 rIdx = r0x1050 
019C 0200      02460         SUBWF   r0x1021,W
               02461 ;; gen.c:3073:genSkipc *{*
               02462 ; >>> gen.c:3078:genSkipc
019D 02463 _00150_DS_
019D 1803      02464         BTFSC   STATUS,0
               02465 ; >>> gen.c:3082:genSkipc
               02466 ;; ***  popGetLabel  key=26, label offset 8
019E 2800      02467         GOTO    _00134_DS_
               02468 ;genSkipc:3083: created from rifx:0xbf877470
               02469 ;; gen.c:2261:resultRemat *{*
               02470 ;; gen.c:2261:resultRemat *{*
               02471 ;; ***  genPlus  547
               02472 ;; genarith.c:548:genPlus *{*
               02473 ;;      721 register type nRegs=3
               02474 ;;      721 register type nRegs=1
               02475 ;;      721 register type nRegs=3
               02476 ;;      line = 554 result AOP_REG=r0x1050, size=3, left AOP_REG=r0x1048, size=3, right AOP_REG=r0x104F, size=1
               02477 ;; ***  pic14_getDataSize  1426
               02478 ;; ***  pic14_getDataSize  1446
               02479 ;; genarith.c:142:genPlusIncr *{*
               02480 ;; ***  genPlusIncr  144
gpasm-0.13.7 beta               rfm12.asm   8-8-2010  12:38:54           PAGE 47


LOC  OBJECT CODE     LINE SOURCE TEXT
  VALUE
 
               02481 ;;      result AOP_REG, left AOP_REG, right AOP_REG
               02482 ;; ***  pic14_getDataSize  1426
               02483 ;; ***  pic14_getDataSize  1446
               02484 ;; ***  genPlus  653
               02485 ; >>> genarith.c:662:genPlus
               02486 ;;      1109 rIdx = r0x104F 
               02487         .line   103; "rfm12.c"  d=rfm12_spi16(0xb800|(msg[i]));
019F 0000 0000 02488         BANKSEL r0x1020
01A1 0800      02489         MOVF    r0x1020,W
               02490 ; >>> genarith.c:671:genPlus
               02491 ;;      1109 rIdx = r0x1048 
01A2 0700      02492         ADDWF   r0x101B,W
               02493 ; >>> genarith.c:672:genPlus
               02494 ;;      1109 rIdx = r0x1050 
01A3 0080      02495         MOVWF   r0x1021
               02496 ; >>> genarith.c:735:genPlus
               02497 ;;      1109 rIdx = r0x1049 
01A4 0800      02498         MOVF    r0x101A,W
               02499 ; >>> genarith.c:736:genPlus
01A5 1803      02500         BTFSC   STATUS,0
               02501 ; >>> genarith.c:737:genPlus
01A6 3E01      02502         ADDLW   0x01
               02503 ; >>> genarith.c:738:genPlus
               02504 ;;      1109 rIdx = r0x1051 
01A7 0080      02505         MOVWF   r0x1022
               02506 ; >>> genarith.c:735:genPlus
               02507 ;;      1109 rIdx = r0x104A 
01A8 0800      02508         MOVF    r0x1019,W
               02509 ; >>> genarith.c:736:genPlus
01A9 1803      02510         BTFSC   STATUS,0
               02511 ; >>> genarith.c:737:genPlus
01AA 3E01      02512         ADDLW   0x01
               02513 ; >>> genarith.c:738:genPlus
               02514 ;;      1109 rIdx = r0x1052 
01AB 0080      02515         MOVWF   r0x1024
               02516 ;; gen.c:2261:resultRemat *{*
               02517 ;; gen.c:5608:genPointerGet *{*
               02518 ;; ***  genPointerGet  5609
               02519 ;; gen.c:5496:genGenPointerGet *{*
               02520 ;; ***  genGenPointerGet  5497
               02521 ;;      721 register type nRegs=3
               02522 ;;      721 register type nRegs=1
               02523 ;;      line = 5502 result AOP_REG=r0x1053, size=1, left AOP_REG=r0x1050, size=3, right -=-, size=0
               02524 ;; ***  mov2w  1356  offset=0
               02525 ; >>> gen.c:1361:mov2w
               02526 ;;      1109 rIdx = r0x1050 
01AC 0800      02527         MOVF    r0x1021,W
               02528 ; >>> gen.c:5521:genGenPointerGet
               02529 ;; ***  popRegFromIdx,1043  , rIdx=0x7e
01AD 0080      02530         MOVWF   STK01
               02531 ;; ***  mov2w  1356  offset=1
               02532 ; >>> gen.c:1361:mov2w
               02533 ;;      1109 rIdx = r0x1051 
01AE 0800      02534         MOVF    r0x1022,W
gpasm-0.13.7 beta               rfm12.asm   8-8-2010  12:38:54           PAGE 48


LOC  OBJECT CODE     LINE SOURCE TEXT
  VALUE
 
               02535 ; >>> gen.c:5523:genGenPointerGet
               02536 ;; ***  popRegFromIdx,1043  , rIdx=0x7f
01AF 0080      02537         MOVWF   STK00
               02538 ;; ***  mov2w  1356  offset=2
               02539 ; >>> gen.c:1361:mov2w
               02540 ;;      1109 rIdx = r0x1052 
01B0 0800      02541         MOVF    r0x1024,W
               02542 ; >>> gen.c:1402:call_libraryfunc
01B1 02543         PAGESEL __gptrget1
               02544 ; >>> gen.c:1404:call_libraryfunc
01B1 2000      02545         CALL    __gptrget1
               02546 ; >>> gen.c:1406:call_libraryfunc
01B2 02547         PAGESEL $
               02548 ; >>> gen.c:1367:movwf
               02549 ;;      1109 rIdx = r0x1053 
01B2 0000 0000 02550         BANKSEL r0x1023
01B4 0080      02551         MOVWF   r0x1023
               02552 ;;1     MOVWF   r0x1025
               02553 ;; ***  pic14_getDataSize  1426
               02554 ;; ***  addSign  797
               02555 ;; genarith.c:798:addSign *{*
               02556 ; >>> genarith.c:817:addSign
               02557 ;;      1109 rIdx = r0x1055 
               02558 ;;100   CLRF    r0x1026
               02559 ;; gen.c:2261:resultRemat *{*
               02560 ;; gen.c:3504:ifxForOp *{*
               02561 ;; ***  ifxForOp  3506
               02562 ;; NULL :(      3526
               02563 ;; gen.c:3981:genOr *{*
               02564 ;; ***  genOr  3982
               02565 ;;      721 register type nRegs=2
               02566 ;;      721 register type nRegs=2
               02567 ;;      line = 3988 result AOP_REG=r0x1053, size=2, left AOP_REG=r0x1054, size=2, right AOP_LIT=0x00, size=2
               02568 ;;      line = 4013 result AOP_REG=r0x1053, size=2, left AOP_REG=r0x1054, size=2, right AOP_LIT=0x00, size=2
               02569 ; >>> gen.c:4192:genOr
               02570 ;;      1109 rIdx = r0x1054 
               02571 ;;99    MOVF    r0x1025,W
               02572 ; >>> gen.c:4193:genOr
               02573 ;;      1109 rIdx = r0x1053 
               02574 ; >>> gen.c:4197:genOr
01B5 30B8      02575         MOVLW   0xb8
               02576 ; >>> gen.c:4198:genOr
               02577 ;;      1109 rIdx = r0x1055 
               02578 ;;101   IORWF   r0x1026,W
               02579 ; >>> gen.c:4199:genOr
               02580 ;;      1109 rIdx = r0x1056 
01B6 0080      02581         MOVWF   r0x1027
               02582 ;; gen.c:2261:resultRemat *{*
               02583 ;; gen.c:2261:resultRemat *{*
               02584 ;; gen.c:2030:genCall *{*
               02585 ;; ***  genCall  2032
               02586 ;; gen.c:1765:saveRegisters *{*
               02587 ;; ***  saveRegisters  1767
               02588 ;;      721 register type nRegs=2
gpasm-0.13.7 beta               rfm12.asm   8-8-2010  12:38:54           PAGE 49


LOC  OBJECT CODE     LINE SOURCE TEXT
  VALUE
 
               02589 ;;      721 register type nRegs=2
               02590 ;;      2079 left AOP_REG
               02591 ;; gen.c:1324:mov2w_op *{*
               02592 ;; ***  mov2w  1356  offset=0
               02593 ; >>> gen.c:1361:mov2w
               02594 ;;      1109 rIdx = r0x1053 
01B7 0800      02595         MOVF    r0x1023,W
               02596 ;;      2079 left AOP_REG
               02597 ; >>> gen.c:2087:genCall
               02598 ;; ***  popRegFromIdx,1043  , rIdx=0x7f
01B8 0080      02599         MOVWF   STK00
               02600 ;; gen.c:1324:mov2w_op *{*
               02601 ;; ***  mov2w  1356  offset=1
               02602 ; >>> gen.c:1361:mov2w
               02603 ;;      1109 rIdx = r0x1056 
01B9 0800      02604         MOVF    r0x1027,W
               02605 ; >>> gen.c:2116:genCall
01BA 02606         PAGESEL _rfm12_spi16
               02607 ; >>> gen.c:2118:genCall
01BA 2000      02608         CALL    _rfm12_spi16
               02609 ; >>> gen.c:2123:genCall
01BB 02610         PAGESEL $
               02611 ;; gen.c:1809:unsaveRegisters *{*
               02612 ;; ***  unsaveRegisters  1811
               02613 ;; gen.c:2261:resultRemat *{*
               02614 ;; gen.c:2261:resultRemat *{*
               02615 ;; gen.c:2030:genCall *{*
               02616 ;; ***  genCall  2032
               02617 ;; gen.c:1765:saveRegisters *{*
               02618 ;; ***  saveRegisters  1767
               02619 ;;      2079 left AOP_LIT
               02620 ;; gen.c:1324:mov2w_op *{*
               02621 ; >>> gen.c:1339:mov2w_op
               02622         .line   104; "rfm12.c"  if(0==rfm12_wait(RFM12_TOUT))
01BB 30E8      02623         MOVLW   0xe8
               02624 ;;      2079 left AOP_LIT
               02625 ; >>> gen.c:2087:genCall
               02626 ;; ***  popRegFromIdx,1043  , rIdx=0x7f
01BC 0080      02627         MOVWF   STK00
               02628 ;; gen.c:1324:mov2w_op *{*
               02629 ; >>> gen.c:1339:mov2w_op
01BD 3003      02630         MOVLW   0x03
               02631 ; >>> gen.c:2116:genCall
01BE 02632         PAGESEL _rfm12_wait
               02633 ; >>> gen.c:2118:genCall
01BE 2000      02634         CALL    _rfm12_wait
               02635 ; >>> gen.c:2123:genCall
01BF 02636         PAGESEL $
               02637 ;;      721 register type nRegs=1
               02638 ;; gen.c:1866:assignResultValue *{*
               02639 ;; ***  assignResultValue  1868
               02640 ;;      line = 1870 result -=-, size=0, left AOP_REG=r0x1053, size=1, right -=-, size=0
               02641 ; >>> gen.c:1367:movwf
               02642 ;;      1109 rIdx = r0x1053 
gpasm-0.13.7 beta               rfm12.asm   8-8-2010  12:38:54           PAGE 50


LOC  OBJECT CODE     LINE SOURCE TEXT
  VALUE
 
01BF 0000 0000 02643         BANKSEL r0x1023
01C1 0080      02644         MOVWF   r0x1023
               02645 ;;      2138 left AOP_REG
               02646 ;; gen.c:1809:unsaveRegisters *{*
               02647 ;; ***  unsaveRegisters  1811
               02648 ;; gen.c:2261:resultRemat *{*
               02649 ;; gen.c:3504:ifxForOp *{*
               02650 ;; ***  ifxForOp  3506
               02651 ;; gen.c:3388:genCmpEq *{*
               02652 ;; ***  genCmpEq  3389
               02653 ;; ifx is non-null
               02654 ;;      721 register type nRegs=1
               02655 ;;      line = 3400 result AOP_CRY=0x00, size=0, left AOP_LIT=0x00, size=1, right AOP_REG=r0x1053, size=1
               02656 ;; ***  mov2w  1356  offset=0
               02657 ; >>> gen.c:1361:mov2w
               02658 ;;      1109 rIdx = r0x1053 
01C2 0800      02659         MOVF    r0x1023,W
               02660 ; >>> gen.c:3443:genCmpEq
01C3 1D03      02661         BTFSS   STATUS,2
               02662 ; >>> gen.c:3445:genCmpEq
               02663 ;; ***  popGetLabel  key=14, label offset 8
01C4 2800      02664         GOTO    _00122_DS_
               02665 ;; gen.c:2261:resultRemat *{*
               02666 ;; gen.c:2261:resultRemat *{*
               02667 ;; gen.c:2561:genRet *{*
               02668 ;; ***  genRet  2563
               02669 ;; gen.c:1324:mov2w_op *{*
               02670 ; >>> gen.c:1339:mov2w_op
               02671         .line   105; "rfm12.c"  return 0;
01C5 3000      02672         MOVLW   0x00
               02673 ; >>> gen.c:2587:genRet
               02674 ;; ***  popGetLabel  key=27, label offset 8
01C6 2800      02675         GOTO    _00135_DS_
               02676 ;; gen.c:2261:resultRemat *{*
               02677 ;; gen.c:2597:genLabel *{*
               02678 ;; ***  genLabel  2600
               02679 ;; gen.c:2261:resultRemat *{*
               02680 ;; gen.c:5608:genPointerGet *{*
               02681 ;; ***  genPointerGet  5609
               02682 ;; gen.c:5496:genGenPointerGet *{*
               02683 ;; ***  genGenPointerGet  5497
               02684 ;;      721 register type nRegs=3
               02685 ;;      721 register type nRegs=1
               02686 ;;      line = 5502 result AOP_REG=r0x1053, size=1, left AOP_REG=r0x1050, size=3, right -=-, size=0
               02687 ;; ***  mov2w  1356  offset=0
               02688 ; >>> gen.c:1361:mov2w
               02689 ;;      1109 rIdx = r0x1050 
01C7 02690 _00122_DS_
               02691         .line   106; "rfm12.c"  chksum+=msg[i];
01C7 0000 0000 02692         BANKSEL r0x1021
01C9 0800      02693         MOVF    r0x1021,W
               02694 ; >>> gen.c:5521:genGenPointerGet
               02695 ;; ***  popRegFromIdx,1043  , rIdx=0x7e
01CA 0080      02696         MOVWF   STK01
gpasm-0.13.7 beta               rfm12.asm   8-8-2010  12:38:54           PAGE 51


LOC  OBJECT CODE     LINE SOURCE TEXT
  VALUE
 
               02697 ;; ***  mov2w  1356  offset=1
               02698 ; >>> gen.c:1361:mov2w
               02699 ;;      1109 rIdx = r0x1051 
01CB 0800      02700         MOVF    r0x1022,W
               02701 ; >>> gen.c:5523:genGenPointerGet
               02702 ;; ***  popRegFromIdx,1043  , rIdx=0x7f
01CC 0080      02703         MOVWF   STK00
               02704 ;; ***  mov2w  1356  offset=2
               02705 ; >>> gen.c:1361:mov2w
               02706 ;;      1109 rIdx = r0x1052 
01CD 0800      02707         MOVF    r0x1024,W
               02708 ; >>> gen.c:1402:call_libraryfunc
01CE 02709         PAGESEL __gptrget1
               02710 ; >>> gen.c:1404:call_libraryfunc
01CE 2000      02711         CALL    __gptrget1
               02712 ; >>> gen.c:1406:call_libraryfunc
01CF 02713         PAGESEL $
               02714 ; >>> gen.c:1367:movwf
               02715 ;;      1109 rIdx = r0x1053 
01CF 0000 0000 02716         BANKSEL r0x1023
01D1 0080      02717         MOVWF   r0x1023
01D2 0080      02718         MOVWF   r0x1021
               02719 ;; ***  pic14_getDataSize  1426
               02720 ;; ***  addSign  797
               02721 ;; genarith.c:798:addSign *{*
               02722 ; >>> genarith.c:817:addSign
               02723 ;;      1109 rIdx = r0x1051 
01D3 0180      02724         CLRF    r0x1022
               02725 ;; gen.c:2261:resultRemat *{*
               02726 ;; ***  genPlus  547
               02727 ;; genarith.c:548:genPlus *{*
               02728 ;;      721 register type nRegs=2
               02729 ;;      721 register type nRegs=2
               02730 ;;      606
               02731 ;;      line = 554 result AOP_REG=r0x104D, size=2, left AOP_REG=r0x104D, size=2, right AOP_REG=r0x1050, size=2
               02732 ;; ***  pic14_getDataSize  1426
               02733 ;; genarith.c:142:genPlusIncr *{*
               02734 ;; ***  genPlusIncr  144
               02735 ;;      result AOP_REG, left AOP_REG, right AOP_REG
               02736 ;; ***  pic14_getDataSize  1426
               02737 ;; ***  genPlus  653
               02738 ; >>> genarith.c:662:genPlus
               02739 ;;      1109 rIdx = r0x1050 
01D4 0800      02740         MOVF    r0x1021,W
               02741 ; >>> genarith.c:665:genPlus
               02742 ;;      1109 rIdx = r0x104D 
01D5 0780      02743         ADDWF   r0x101E,F
               02744 ; >>> genarith.c:710:genPlus
               02745 ;;      1109 rIdx = r0x1051 
01D6 3000      02746         MOVLW   0x00
               02747 ; >>> genarith.c:711:genPlus
01D7 1803      02748         BTFSC   STATUS,0
               02749 ; >>> genarith.c:712:genPlus
               02750 ;;      1109 rIdx = r0x1051 
gpasm-0.13.7 beta               rfm12.asm   8-8-2010  12:38:54           PAGE 52


LOC  OBJECT CODE     LINE SOURCE TEXT
  VALUE
 
01D8 0F00      02751         INCFSZ  r0x1022,W
               02752 ; >>> genarith.c:713:genPlus
               02753 ;;      1109 rIdx = r0x104E 
01D9 0780      02754         ADDWF   r0x101F,F
               02755 ;; gen.c:2261:resultRemat *{*
               02756 ;; ***  genPlus  547
               02757 ;; genarith.c:548:genPlus *{*
               02758 ;;      721 register type nRegs=1
               02759 ;;      606
               02760 ;;      line = 554 result AOP_REG=r0x104F, size=1, left AOP_REG=r0x104F, size=1, right AOP_LIT=0x01, size=1
               02761 ;; ***  pic14_getDataSize  1426
               02762 ;; genarith.c:142:genPlusIncr *{*
               02763 ;; ***  genPlusIncr  144
               02764 ;;      result AOP_REG, left AOP_REG, right AOP_LIT
               02765 ;;      genPlusIncr  156
               02766 ; >>> genarith.c:168:genPlusIncr
               02767 ;;      1109 rIdx = r0x104F 
               02768         .line   102; "rfm12.c"  for(i=0;i<len;i++){
01DA 0A80      02769         INCF    r0x1020,F
               02770 ;; gen.c:2261:resultRemat *{*
               02771 ;; gen.c:2614:genGoto *{*
               02772 ; >>> gen.c:2616:genGoto
               02773 ;; ***  popGetLabel  key=23, label offset 8
01DB 2800      02774         GOTO    _00131_DS_
               02775 ;; gen.c:2261:resultRemat *{*
               02776 ;; gen.c:2597:genLabel *{*
               02777 ;; ***  genLabel  2600
               02778 ;; gen.c:2261:resultRemat *{*
               02779 ;; gen.c:3504:ifxForOp *{*
               02780 ;; ***  ifxForOp  3506
               02781 ;; NULL :(      3526
               02782 ;; gen.c:3719:genAnd *{*
               02783 ;; ***  genAnd  3720
               02784 ;;      721 register type nRegs=2
               02785 ;;      606
               02786 ;;      line = 3754 result AOP_REG=r0x104D, size=2, left AOP_REG=r0x104D, size=2, right AOP_LIT=0xff, size=2
               02787 ; >>> gen.c:3887:genAnd
               02788 ;;      1109 rIdx = r0x104E 
01DC 02789 _00134_DS_
               02790         .line   108; "rfm12.c"  chksum&=0x0ff;
01DC 0000 0000 02791         BANKSEL r0x101F
01DE 0180      02792         CLRF    r0x101F
               02793 ;; gen.c:2261:resultRemat *{*
               02794 ;; gen.c:3504:ifxForOp *{*
               02795 ;; ***  ifxForOp  3506
               02796 ;; NULL :(      3526
               02797 ;; gen.c:3981:genOr *{*
               02798 ;; ***  genOr  3982
               02799 ;;      721 register type nRegs=2
               02800 ;;      721 register type nRegs=2
               02801 ;;      line = 3988 result AOP_REG=r0x104D, size=2, left AOP_REG=r0x104D, size=2, right AOP_LIT=0x00, size=2
               02802 ;;      line = 4013 result AOP_REG=r0x104D, size=2, left AOP_REG=r0x104D, size=2, right AOP_LIT=0x00, size=2
               02803 ; >>> gen.c:4148:genOr
               02804         .line   111; "rfm12.c"  d=rfm12_spi16(0xb800|(chksum));
gpasm-0.13.7 beta               rfm12.asm   8-8-2010  12:38:54           PAGE 53


LOC  OBJECT CODE     LINE SOURCE TEXT
  VALUE
 
01DF 30B8      02805         MOVLW   0xb8
               02806 ; >>> gen.c:4150:genOr
               02807 ;;      1109 rIdx = r0x104E 
01E0 0480      02808         IORWF   r0x101F,F
               02809 ;; gen.c:2261:resultRemat *{*
               02810 ;; gen.c:2261:resultRemat *{*
               02811 ;; gen.c:2030:genCall *{*
               02812 ;; ***  genCall  2032
               02813 ;; gen.c:1765:saveRegisters *{*
               02814 ;; ***  saveRegisters  1767
               02815 ;;      721 register type nRegs=2
               02816 ;;      721 register type nRegs=2
               02817 ;;      2079 left AOP_REG
               02818 ;; gen.c:1324:mov2w_op *{*
               02819 ;; ***  mov2w  1356  offset=0
               02820 ; >>> gen.c:1361:mov2w
               02821 ;;      1109 rIdx = r0x104D 
01E1 0800      02822         MOVF    r0x101E,W
               02823 ;;      2079 left AOP_REG
               02824 ; >>> gen.c:2087:genCall
               02825 ;; ***  popRegFromIdx,1043  , rIdx=0x7f
01E2 0080      02826         MOVWF   STK00
               02827 ;; gen.c:1324:mov2w_op *{*
               02828 ;; ***  mov2w  1356  offset=1
               02829 ; >>> gen.c:1361:mov2w
               02830 ;;      1109 rIdx = r0x104E 
01E3 0800      02831         MOVF    r0x101F,W
               02832 ; >>> gen.c:2116:genCall
01E4 02833         PAGESEL _rfm12_spi16
               02834 ; >>> gen.c:2118:genCall
01E4 2000      02835         CALL    _rfm12_spi16
               02836 ; >>> gen.c:2123:genCall
01E5 02837         PAGESEL $
               02838 ;; gen.c:1809:unsaveRegisters *{*
               02839 ;; ***  unsaveRegisters  1811
               02840 ;; gen.c:2261:resultRemat *{*
               02841 ;; gen.c:2261:resultRemat *{*
               02842 ;; gen.c:2030:genCall *{*
               02843 ;; ***  genCall  2032
               02844 ;; gen.c:1765:saveRegisters *{*
               02845 ;; ***  saveRegisters  1767
               02846 ;;      2079 left AOP_LIT
               02847 ;; gen.c:1324:mov2w_op *{*
               02848 ; >>> gen.c:1339:mov2w_op
               02849         .line   112; "rfm12.c"  if(0==rfm12_wait(RFM12_TOUT))
01E5 30E8      02850         MOVLW   0xe8
               02851 ;;      2079 left AOP_LIT
               02852 ; >>> gen.c:2087:genCall
               02853 ;; ***  popRegFromIdx,1043  , rIdx=0x7f
01E6 0080      02854         MOVWF   STK00
               02855 ;; gen.c:1324:mov2w_op *{*
               02856 ; >>> gen.c:1339:mov2w_op
01E7 3003      02857         MOVLW   0x03
               02858 ; >>> gen.c:2116:genCall
gpasm-0.13.7 beta               rfm12.asm   8-8-2010  12:38:54           PAGE 54


LOC  OBJECT CODE     LINE SOURCE TEXT
  VALUE
 
01E8 02859         PAGESEL _rfm12_wait
               02860 ; >>> gen.c:2118:genCall
01E8 2000      02861         CALL    _rfm12_wait
               02862 ; >>> gen.c:2123:genCall
01E9 02863         PAGESEL $
               02864 ;;      721 register type nRegs=1
               02865 ;; gen.c:1866:assignResultValue *{*
               02866 ;; ***  assignResultValue  1868
               02867 ;;      line = 1870 result -=-, size=0, left AOP_REG=r0x1048, size=1, right -=-, size=0
               02868 ; >>> gen.c:1367:movwf
               02869 ;;      1109 rIdx = r0x1048 
01E9 0000 0000 02870         BANKSEL r0x101B
01EB 0080      02871         MOVWF   r0x101B
               02872 ;;      2138 left AOP_REG
               02873 ;; gen.c:1809:unsaveRegisters *{*
               02874 ;; ***  unsaveRegisters  1811
               02875 ;; gen.c:2261:resultRemat *{*
               02876 ;; gen.c:3504:ifxForOp *{*
               02877 ;; ***  ifxForOp  3506
               02878 ;; gen.c:3388:genCmpEq *{*
               02879 ;; ***  genCmpEq  3389
               02880 ;; ifx is non-null
               02881 ;;      721 register type nRegs=1
               02882 ;;      line = 3400 result AOP_CRY=0x00, size=0, left AOP_LIT=0x00, size=1, right AOP_REG=r0x1048, size=1
               02883 ;; ***  mov2w  1356  offset=0
               02884 ; >>> gen.c:1361:mov2w
               02885 ;;      1109 rIdx = r0x1048 
01EC 0800      02886         MOVF    r0x101B,W
               02887 ; >>> gen.c:3443:genCmpEq
01ED 1D03      02888         BTFSS   STATUS,2
               02889 ; >>> gen.c:3445:genCmpEq
               02890 ;; ***  popGetLabel  key=16, label offset 8
01EE 2800      02891         GOTO    _00124_DS_
               02892 ;; gen.c:2261:resultRemat *{*
               02893 ;; gen.c:2261:resultRemat *{*
               02894 ;; gen.c:2561:genRet *{*
               02895 ;; ***  genRet  2563
               02896 ;; gen.c:1324:mov2w_op *{*
               02897 ; >>> gen.c:1339:mov2w_op
               02898         .line   113; "rfm12.c"  return 0;
01EF 3000      02899         MOVLW   0x00
               02900 ; >>> gen.c:2587:genRet
               02901 ;; ***  popGetLabel  key=27, label offset 8
01F0 2800      02902         GOTO    _00135_DS_
               02903 ;; gen.c:2261:resultRemat *{*
               02904 ;; gen.c:2597:genLabel *{*
               02905 ;; ***  genLabel  2600
               02906 ;; gen.c:2261:resultRemat *{*
               02907 ;; gen.c:2261:resultRemat *{*
               02908 ;; gen.c:2030:genCall *{*
               02909 ;; ***  genCall  2032
               02910 ;; gen.c:1765:saveRegisters *{*
               02911 ;; ***  saveRegisters  1767
               02912 ;;      2079 left AOP_LIT
gpasm-0.13.7 beta               rfm12.asm   8-8-2010  12:38:54           PAGE 55


LOC  OBJECT CODE     LINE SOURCE TEXT
  VALUE
 
               02913 ;; gen.c:1324:mov2w_op *{*
               02914 ; >>> gen.c:1339:mov2w_op
01F1 02915 _00124_DS_
               02916         .line   115; "rfm12.c"  d=rfm12_spi16(0xb8aa);          // dummy bytes
01F1 30AA      02917         MOVLW   0xaa
               02918 ;;      2079 left AOP_LIT
               02919 ; >>> gen.c:2087:genCall
               02920 ;; ***  popRegFromIdx,1043  , rIdx=0x7f
01F2 0080      02921         MOVWF   STK00
               02922 ;; gen.c:1324:mov2w_op *{*
               02923 ; >>> gen.c:1339:mov2w_op
01F3 30B8      02924         MOVLW   0xb8
               02925 ; >>> gen.c:2116:genCall
01F4 02926         PAGESEL _rfm12_spi16
               02927 ; >>> gen.c:2118:genCall
01F4 2000      02928         CALL    _rfm12_spi16
               02929 ; >>> gen.c:2123:genCall
01F5 02930         PAGESEL $
               02931 ;; gen.c:1809:unsaveRegisters *{*
               02932 ;; ***  unsaveRegisters  1811
               02933 ;; gen.c:2261:resultRemat *{*
               02934 ;; gen.c:2261:resultRemat *{*
               02935 ;; gen.c:2030:genCall *{*
               02936 ;; ***  genCall  2032
               02937 ;; gen.c:1765:saveRegisters *{*
               02938 ;; ***  saveRegisters  1767
               02939 ;;      2079 left AOP_LIT
               02940 ;; gen.c:1324:mov2w_op *{*
               02941 ; >>> gen.c:1339:mov2w_op
               02942         .line   116; "rfm12.c"  if(0==rfm12_wait(RFM12_TOUT))
01F5 30E8      02943         MOVLW   0xe8
               02944 ;;      2079 left AOP_LIT
               02945 ; >>> gen.c:2087:genCall
               02946 ;; ***  popRegFromIdx,1043  , rIdx=0x7f
01F6 0080      02947         MOVWF   STK00
               02948 ;; gen.c:1324:mov2w_op *{*
               02949 ; >>> gen.c:1339:mov2w_op
01F7 3003      02950         MOVLW   0x03
               02951 ; >>> gen.c:2116:genCall
01F8 02952         PAGESEL _rfm12_wait
               02953 ; >>> gen.c:2118:genCall
01F8 2000      02954         CALL    _rfm12_wait
               02955 ; >>> gen.c:2123:genCall
01F9 02956         PAGESEL $
               02957 ;;      721 register type nRegs=1
               02958 ;; gen.c:1866:assignResultValue *{*
               02959 ;; ***  assignResultValue  1868
               02960 ;;      line = 1870 result -=-, size=0, left AOP_REG=r0x1048, size=1, right -=-, size=0
               02961 ; >>> gen.c:1367:movwf
               02962 ;;      1109 rIdx = r0x1048 
01F9 0000 0000 02963         BANKSEL r0x101B
01FB 0080      02964         MOVWF   r0x101B
               02965 ;;      2138 left AOP_REG
               02966 ;; gen.c:1809:unsaveRegisters *{*
gpasm-0.13.7 beta               rfm12.asm   8-8-2010  12:38:54           PAGE 56


LOC  OBJECT CODE     LINE SOURCE TEXT
  VALUE
 
               02967 ;; ***  unsaveRegisters  1811
               02968 ;; gen.c:2261:resultRemat *{*
               02969 ;; gen.c:3504:ifxForOp *{*
               02970 ;; ***  ifxForOp  3506
               02971 ;; gen.c:3388:genCmpEq *{*
               02972 ;; ***  genCmpEq  3389
               02973 ;; ifx is non-null
               02974 ;;      721 register type nRegs=1
               02975 ;;      line = 3400 result AOP_CRY=0x00, size=0, left AOP_LIT=0x00, size=1, right AOP_REG=r0x1048, size=1
               02976 ;; ***  mov2w  1356  offset=0
               02977 ; >>> gen.c:1361:mov2w
               02978 ;;      1109 rIdx = r0x1048 
01FC 0800      02979         MOVF    r0x101B,W
               02980 ; >>> gen.c:3443:genCmpEq
01FD 1D03      02981         BTFSS   STATUS,2
               02982 ; >>> gen.c:3445:genCmpEq
               02983 ;; ***  popGetLabel  key=18, label offset 8
01FE 2800      02984         GOTO    _00126_DS_
               02985 ;; gen.c:2261:resultRemat *{*
               02986 ;; gen.c:2261:resultRemat *{*
               02987 ;; gen.c:2561:genRet *{*
               02988 ;; ***  genRet  2563
               02989 ;; gen.c:1324:mov2w_op *{*
               02990 ; >>> gen.c:1339:mov2w_op
               02991         .line   117; "rfm12.c"  return 0;
01FF 3000      02992         MOVLW   0x00
               02993 ; >>> gen.c:2587:genRet
               02994 ;; ***  popGetLabel  key=27, label offset 8
0200 2800      02995         GOTO    _00135_DS_
               02996 ;; gen.c:2261:resultRemat *{*
               02997 ;; gen.c:2597:genLabel *{*
               02998 ;; ***  genLabel  2600
               02999 ;; gen.c:2261:resultRemat *{*
               03000 ;; gen.c:2261:resultRemat *{*
               03001 ;; gen.c:2030:genCall *{*
               03002 ;; ***  genCall  2032
               03003 ;; gen.c:1765:saveRegisters *{*
               03004 ;; ***  saveRegisters  1767
               03005 ;;      2079 left AOP_LIT
               03006 ;; gen.c:1324:mov2w_op *{*
               03007 ; >>> gen.c:1339:mov2w_op
0201 03008 _00126_DS_
               03009         .line   118; "rfm12.c"  d=rfm12_spi16(0xb8aa);
0201 30AA      03010         MOVLW   0xaa
               03011 ;;      2079 left AOP_LIT
               03012 ; >>> gen.c:2087:genCall
               03013 ;; ***  popRegFromIdx,1043  , rIdx=0x7f
0202 0080      03014         MOVWF   STK00
               03015 ;; gen.c:1324:mov2w_op *{*
               03016 ; >>> gen.c:1339:mov2w_op
0203 30B8      03017         MOVLW   0xb8
               03018 ; >>> gen.c:2116:genCall
0204 03019         PAGESEL _rfm12_spi16
               03020 ; >>> gen.c:2118:genCall
gpasm-0.13.7 beta               rfm12.asm   8-8-2010  12:38:54           PAGE 57


LOC  OBJECT CODE     LINE SOURCE TEXT
  VALUE
 
0204 2000      03021         CALL    _rfm12_spi16
               03022 ; >>> gen.c:2123:genCall
0205 03023         PAGESEL $
               03024 ;; gen.c:1809:unsaveRegisters *{*
               03025 ;; ***  unsaveRegisters  1811
               03026 ;; gen.c:2261:resultRemat *{*
               03027 ;; gen.c:2261:resultRemat *{*
               03028 ;; gen.c:2030:genCall *{*
               03029 ;; ***  genCall  2032
               03030 ;; gen.c:1765:saveRegisters *{*
               03031 ;; ***  saveRegisters  1767
               03032 ;;      2079 left AOP_LIT
               03033 ;; gen.c:1324:mov2w_op *{*
               03034 ; >>> gen.c:1339:mov2w_op
               03035         .line   119; "rfm12.c"  if(0==rfm12_wait(RFM12_TOUT))
0205 30E8      03036         MOVLW   0xe8
               03037 ;;      2079 left AOP_LIT
               03038 ; >>> gen.c:2087:genCall
               03039 ;; ***  popRegFromIdx,1043  , rIdx=0x7f
0206 0080      03040         MOVWF   STK00
               03041 ;; gen.c:1324:mov2w_op *{*
               03042 ; >>> gen.c:1339:mov2w_op
0207 3003      03043         MOVLW   0x03
               03044 ; >>> gen.c:2116:genCall
0208 03045         PAGESEL _rfm12_wait
               03046 ; >>> gen.c:2118:genCall
0208 2000      03047         CALL    _rfm12_wait
               03048 ; >>> gen.c:2123:genCall
0209 03049         PAGESEL $
               03050 ;;      721 register type nRegs=1
               03051 ;; gen.c:1866:assignResultValue *{*
               03052 ;; ***  assignResultValue  1868
               03053 ;;      line = 1870 result -=-, size=0, left AOP_REG=r0x1048, size=1, right -=-, size=0
               03054 ; >>> gen.c:1367:movwf
               03055 ;;      1109 rIdx = r0x1048 
0209 0000 0000 03056         BANKSEL r0x101B
020B 0080      03057         MOVWF   r0x101B
               03058 ;;      2138 left AOP_REG
               03059 ;; gen.c:1809:unsaveRegisters *{*
               03060 ;; ***  unsaveRegisters  1811
               03061 ;; gen.c:2261:resultRemat *{*
               03062 ;; gen.c:3504:ifxForOp *{*
               03063 ;; ***  ifxForOp  3506
               03064 ;; gen.c:3388:genCmpEq *{*
               03065 ;; ***  genCmpEq  3389
               03066 ;; ifx is non-null
               03067 ;;      721 register type nRegs=1
               03068 ;;      line = 3400 result AOP_CRY=0x00, size=0, left AOP_LIT=0x00, size=1, right AOP_REG=r0x1048, size=1
               03069 ;; ***  mov2w  1356  offset=0
               03070 ; >>> gen.c:1361:mov2w
               03071 ;;      1109 rIdx = r0x1048 
020C 0800      03072         MOVF    r0x101B,W
               03073 ; >>> gen.c:3443:genCmpEq
020D 1D03      03074         BTFSS   STATUS,2
gpasm-0.13.7 beta               rfm12.asm   8-8-2010  12:38:54           PAGE 58


LOC  OBJECT CODE     LINE SOURCE TEXT
  VALUE
 
               03075 ; >>> gen.c:3445:genCmpEq
               03076 ;; ***  popGetLabel  key=20, label offset 8
020E 2800      03077         GOTO    _00128_DS_
               03078 ;; gen.c:2261:resultRemat *{*
               03079 ;; gen.c:2261:resultRemat *{*
               03080 ;; gen.c:2561:genRet *{*
               03081 ;; ***  genRet  2563
               03082 ;; gen.c:1324:mov2w_op *{*
               03083 ; >>> gen.c:1339:mov2w_op
               03084         .line   120; "rfm12.c"  return 0;
020F 3000      03085         MOVLW   0x00
               03086 ; >>> gen.c:2587:genRet
               03087 ;; ***  popGetLabel  key=27, label offset 8
0210 2800      03088         GOTO    _00135_DS_
               03089 ;; gen.c:2261:resultRemat *{*
               03090 ;; gen.c:2597:genLabel *{*
               03091 ;; ***  genLabel  2600
               03092 ;; gen.c:2261:resultRemat *{*
               03093 ;; gen.c:2261:resultRemat *{*
               03094 ;; gen.c:2030:genCall *{*
               03095 ;; ***  genCall  2032
               03096 ;; gen.c:1765:saveRegisters *{*
               03097 ;; ***  saveRegisters  1767
               03098 ;;      2079 left AOP_LIT
               03099 ;; gen.c:1324:mov2w_op *{*
               03100 ; >>> gen.c:1339:mov2w_op
0211 03101 _00128_DS_
               03102         .line   121; "rfm12.c"  d=rfm12_spi16(0xb8aa);
0211 30AA      03103         MOVLW   0xaa
               03104 ;;      2079 left AOP_LIT
               03105 ; >>> gen.c:2087:genCall
               03106 ;; ***  popRegFromIdx,1043  , rIdx=0x7f
0212 0080      03107         MOVWF   STK00
               03108 ;; gen.c:1324:mov2w_op *{*
               03109 ; >>> gen.c:1339:mov2w_op
0213 30B8      03110         MOVLW   0xb8
               03111 ; >>> gen.c:2116:genCall
0214 03112         PAGESEL _rfm12_spi16
               03113 ; >>> gen.c:2118:genCall
0214 2000      03114         CALL    _rfm12_spi16
               03115 ; >>> gen.c:2123:genCall
0215 03116         PAGESEL $
               03117 ;; gen.c:1809:unsaveRegisters *{*
               03118 ;; ***  unsaveRegisters  1811
               03119 ;; gen.c:2261:resultRemat *{*
               03120 ;; gen.c:2261:resultRemat *{*
               03121 ;; gen.c:2030:genCall *{*
               03122 ;; ***  genCall  2032
               03123 ;; gen.c:1765:saveRegisters *{*
               03124 ;; ***  saveRegisters  1767
               03125 ;;      2079 left AOP_LIT
               03126 ;; gen.c:1324:mov2w_op *{*
               03127 ; >>> gen.c:1339:mov2w_op
               03128         .line   122; "rfm12.c"  if(0==rfm12_wait(RFM12_TOUT))
gpasm-0.13.7 beta               rfm12.asm   8-8-2010  12:38:54           PAGE 59


LOC  OBJECT CODE     LINE SOURCE TEXT
  VALUE
 
0215 30E8      03129         MOVLW   0xe8
               03130 ;;      2079 left AOP_LIT
               03131 ; >>> gen.c:2087:genCall
               03132 ;; ***  popRegFromIdx,1043  , rIdx=0x7f
0216 0080      03133         MOVWF   STK00
               03134 ;; gen.c:1324:mov2w_op *{*
               03135 ; >>> gen.c:1339:mov2w_op
0217 3003      03136         MOVLW   0x03
               03137 ; >>> gen.c:2116:genCall
0218 03138         PAGESEL _rfm12_wait
               03139 ; >>> gen.c:2118:genCall
0218 2000      03140         CALL    _rfm12_wait
               03141 ; >>> gen.c:2123:genCall
0219 03142         PAGESEL $
               03143 ;;      721 register type nRegs=1
               03144 ;; gen.c:1866:assignResultValue *{*
               03145 ;; ***  assignResultValue  1868
               03146 ;;      line = 1870 result -=-, size=0, left AOP_REG=r0x1048, size=1, right -=-, size=0
               03147 ; >>> gen.c:1367:movwf
               03148 ;;      1109 rIdx = r0x1048 
0219 0000 0000 03149         BANKSEL r0x101B
021B 0080      03150         MOVWF   r0x101B
               03151 ;;      2138 left AOP_REG
               03152 ;; gen.c:1809:unsaveRegisters *{*
               03153 ;; ***  unsaveRegisters  1811
               03154 ;; gen.c:2261:resultRemat *{*
               03155 ;; gen.c:3504:ifxForOp *{*
               03156 ;; ***  ifxForOp  3506
               03157 ;; gen.c:3388:genCmpEq *{*
               03158 ;; ***  genCmpEq  3389
               03159 ;; ifx is non-null
               03160 ;;      721 register type nRegs=1
               03161 ;;      line = 3400 result AOP_CRY=0x00, size=0, left AOP_LIT=0x00, size=1, right AOP_REG=r0x1048, size=1
               03162 ;; ***  mov2w  1356  offset=0
               03163 ; >>> gen.c:1361:mov2w
               03164 ;;      1109 rIdx = r0x1048 
021C 0800      03165         MOVF    r0x101B,W
               03166 ; >>> gen.c:3443:genCmpEq
021D 1D03      03167         BTFSS   STATUS,2
               03168 ; >>> gen.c:3445:genCmpEq
               03169 ;; ***  popGetLabel  key=22, label offset 8
021E 2800      03170         GOTO    _00130_DS_
               03171 ;; gen.c:2261:resultRemat *{*
               03172 ;; gen.c:2261:resultRemat *{*
               03173 ;; gen.c:2561:genRet *{*
               03174 ;; ***  genRet  2563
               03175 ;; gen.c:1324:mov2w_op *{*
               03176 ; >>> gen.c:1339:mov2w_op
               03177         .line   123; "rfm12.c"  return 0;
021F 3000      03178         MOVLW   0x00
               03179 ; >>> gen.c:2587:genRet
               03180 ;; ***  popGetLabel  key=27, label offset 8
0220 2800      03181         GOTO    _00135_DS_
               03182 ;; gen.c:2261:resultRemat *{*
gpasm-0.13.7 beta               rfm12.asm   8-8-2010  12:38:54           PAGE 60


LOC  OBJECT CODE     LINE SOURCE TEXT
  VALUE
 
               03183 ;; gen.c:2597:genLabel *{*
               03184 ;; ***  genLabel  2600
               03185 ;; gen.c:2261:resultRemat *{*
               03186 ;; gen.c:2261:resultRemat *{*
               03187 ;; gen.c:2030:genCall *{*
               03188 ;; ***  genCall  2032
               03189 ;; gen.c:1765:saveRegisters *{*
               03190 ;; ***  saveRegisters  1767
               03191 ;;      2079 left AOP_LIT
               03192 ;; gen.c:1324:mov2w_op *{*
               03193 ; >>> gen.c:1339:mov2w_op
0221 03194 _00130_DS_
               03195         .line   125; "rfm12.c"  d=rfm12_spi16(0x8208);          // Tx off
0221 3008      03196         MOVLW   0x08
               03197 ;;      2079 left AOP_LIT
               03198 ; >>> gen.c:2087:genCall
               03199 ;; ***  popRegFromIdx,1043  , rIdx=0x7f
0222 0080      03200         MOVWF   STK00
               03201 ;; gen.c:1324:mov2w_op *{*
               03202 ; >>> gen.c:1339:mov2w_op
0223 3082      03203         MOVLW   0x82
               03204 ; >>> gen.c:2116:genCall
0224 03205         PAGESEL _rfm12_spi16
               03206 ; >>> gen.c:2118:genCall
0224 2000      03207         CALL    _rfm12_spi16
               03208 ; >>> gen.c:2123:genCall
0225 03209         PAGESEL $
               03210 ;; gen.c:1809:unsaveRegisters *{*
               03211 ;; ***  unsaveRegisters  1811
               03212 ;; gen.c:2261:resultRemat *{*
               03213 ;; gen.c:2261:resultRemat *{*
               03214 ;; gen.c:6117:genPointerSet *{*
               03215 ;; ***  genPointerSet  6118
               03216 ;; gen.c:5945:genNearPointerSet *{*
               03217 ;; ***  genNearPointerSet  5946
               03218 ;;      641
               03219 ;;      aopForRemat 425
               03220 ;;      446: rname _PORTB_bits, val 0, const = 0
               03221 ;; ***  genNearPointerSet  5963
               03222 ;;      858: aopGet AOP_PCODE type PO_IMMEDIATE
               03223 ;;      _PORTB_bits
               03224 ;;      line = 5965 result AOP_PCODE=_PORTB_bits, size=2, left -=-, size=0, right AOP_LIT=0x01, size=1
               03225 ;; gen.c:5694:genPackBits *{*
               03226 ;; ***  genPackBits  5695
               03227 ;;      858: aopGet AOP_PCODE type PO_IMMEDIATE
               03228 ;;      _PORTB_bits
               03229 ; >>> gen.c:5720:genPackBits
               03230         .line   127; "rfm12.c"  RB5=1;
0225 0000 0000 03231         BANKSEL _PORTB_bits
0227 1680      03232         BSF     _PORTB_bits,5
               03233 ;; gen.c:2261:resultRemat *{*
               03234 ;; gen.c:2261:resultRemat *{*
               03235 ;; gen.c:2030:genCall *{*
               03236 ;; ***  genCall  2032
gpasm-0.13.7 beta               rfm12.asm   8-8-2010  12:38:54           PAGE 61


LOC  OBJECT CODE     LINE SOURCE TEXT
  VALUE
 
               03237 ;; gen.c:1765:saveRegisters *{*
               03238 ;; ***  saveRegisters  1767
               03239 ;;      2079 left AOP_LIT
               03240 ;; gen.c:1324:mov2w_op *{*
               03241 ; >>> gen.c:1339:mov2w_op
               03242         .line   128; "rfm12.c"  delay_ms(100);
0228 3064      03243         MOVLW   0x64
               03244 ; >>> gen.c:2116:genCall
0229 03245         PAGESEL _delay_ms
               03246 ; >>> gen.c:2118:genCall
0229 2000      03247         CALL    _delay_ms
               03248 ; >>> gen.c:2123:genCall
022A 03249         PAGESEL $
               03250 ;; gen.c:1809:unsaveRegisters *{*
               03251 ;; ***  unsaveRegisters  1811
               03252 ;; gen.c:2261:resultRemat *{*
               03253 ;; gen.c:2261:resultRemat *{*
               03254 ;; gen.c:6117:genPointerSet *{*
               03255 ;; ***  genPointerSet  6118
               03256 ;; gen.c:5945:genNearPointerSet *{*
               03257 ;; ***  genNearPointerSet  5946
               03258 ;;      641
               03259 ;;      aopForRemat 425
               03260 ;;      446: rname _PORTB_bits, val 0, const = 0
               03261 ;; ***  genNearPointerSet  5963
               03262 ;;      858: aopGet AOP_PCODE type PO_IMMEDIATE
               03263 ;;      _PORTB_bits
               03264 ;;      line = 5965 result AOP_PCODE=_PORTB_bits, size=2, left -=-, size=0, right AOP_LIT=0x00, size=1
               03265 ;; gen.c:5694:genPackBits *{*
               03266 ;; ***  genPackBits  5695
               03267 ;;      858: aopGet AOP_PCODE type PO_IMMEDIATE
               03268 ;;      _PORTB_bits
               03269 ; >>> gen.c:5720:genPackBits
               03270         .line   129; "rfm12.c"  RB5=0;
022A 0000 0000 03271         BANKSEL _PORTB_bits
022C 1280      03272         BCF     _PORTB_bits,5
               03273 ;; gen.c:2261:resultRemat *{*
               03274 ;; gen.c:2561:genRet *{*
               03275 ;; ***  genRet  2563
               03276 ;; gen.c:1324:mov2w_op *{*
               03277 ; >>> gen.c:1339:mov2w_op
               03278         .line   130; "rfm12.c"  return 1;
022D 3001      03279         MOVLW   0x01
               03280 ;; gen.c:2261:resultRemat *{*
               03281 ;; gen.c:2597:genLabel *{*
               03282 ;; ***  genLabel  2600
               03283 ;; gen.c:2261:resultRemat *{*
               03284 ;; gen.c:2435:genEndFunction *{*
               03285 ;; ***  genEndFunction  2437
022E 03286 _00135_DS_
022E 0008      03287         RETURN  
               03288 ; exit point of _rfm12_snd_msg
               03289 ;; gen.c:6803:genpic14Code *{*
               03290 
gpasm-0.13.7 beta               rfm12.asm   8-8-2010  12:38:54           PAGE 62


LOC  OBJECT CODE     LINE SOURCE TEXT
  VALUE
 
               03291 ;***
               03292 ;  pBlock Stats: dbName = C
               03293 ;***
               03294 ;entry:  _rfm12_init    ;Function start
               03295 ; 2 exit points
               03296 ;has an exit
               03297 ;functions called:
               03298 ;   _rfm12_spi16
               03299 ;   _rfm12_spi16
               03300 ;   _rfm12_spi16
               03301 ;   _rfm12_spi16
               03302 ;   _rfm12_spi16
               03303 ;   _rfm12_spi16
               03304 ;   _rfm12_spi16
               03305 ;   _rfm12_spi16
               03306 ;   _rfm12_spi16
               03307 ;   _rfm12_spi16
               03308 ;   _rfm12_spi16
               03309 ;   _rfm12_spi16
               03310 ;   _rfm12_spi16
               03311 ;   _rfm12_spi16
               03312 ;   _rfm12_spi16
               03313 ;   _rfm12_spi16
               03314 ;   _rfm12_spi16
               03315 ;   _rfm12_spi16
               03316 ;   _rfm12_spi16
               03317 ;   _rfm12_spi16
               03318 ;   _rfm12_spi16
               03319 ;   _rfm12_spi16
               03320 ;   _rfm12_spi16
               03321 ;   _rfm12_spi16
               03322 ;   _rfm12_spi16
               03323 ;   _rfm12_spi16
               03324 ;   _rfm12_spi16
               03325 ;   _rfm12_spi16
               03326 ;1 compiler assigned register :
               03327 ;   STK00
               03328 ;; Starting pCode block
               03329 ;; gen.c:2261:resultRemat *{*
               03330 ;; gen.c:2597:genLabel *{*
               03331 ;; ***  genLabel  2600
               03332 ;; gen.c:2261:resultRemat *{*
               03333 ;; gen.c:2283:genFunction *{*
               03334 ;; ***  genFunction  2285 curr label offset=0previous max_key=0 
022F 03335 _rfm12_init     ;Function start
               03336 ; 2 exit points
               03337 ;; gen.c:2261:resultRemat *{*
               03338 ;; gen.c:2261:resultRemat *{*
               03339 ;; gen.c:6117:genPointerSet *{*
               03340 ;; ***  genPointerSet  6118
               03341 ;; gen.c:5945:genNearPointerSet *{*
               03342 ;; ***  genNearPointerSet  5946
               03343 ;;      641
               03344 ;;      aopForRemat 425
gpasm-0.13.7 beta               rfm12.asm   8-8-2010  12:38:54           PAGE 63


LOC  OBJECT CODE     LINE SOURCE TEXT
  VALUE
 
               03345 ;;      446: rname _TRISB_bits, val 0, const = 0
               03346 ;; ***  genNearPointerSet  5963
               03347 ;;      858: aopGet AOP_PCODE type PO_IMMEDIATE
               03348 ;;      _TRISB_bits
               03349 ;;      line = 5965 result AOP_PCODE=_TRISB_bits, size=2, left -=-, size=0, right AOP_LIT=0x00, size=1
               03350 ;; gen.c:5694:genPackBits *{*
               03351 ;; ***  genPackBits  5695
               03352 ;;      858: aopGet AOP_PCODE type PO_IMMEDIATE
               03353 ;;      _TRISB_bits
               03354 ; >>> gen.c:5720:genPackBits
               03355         .line   41; "rfm12.c"   nSEL_OUT();
022F 0000 0000 03356         BANKSEL _TRISB_bits
0231 1180      03357         BCF     _TRISB_bits,3
               03358 ;; gen.c:2261:resultRemat *{*
               03359 ;; gen.c:2261:resultRemat *{*
               03360 ;; gen.c:6117:genPointerSet *{*
               03361 ;; ***  genPointerSet  6118
               03362 ;; gen.c:5945:genNearPointerSet *{*
               03363 ;; ***  genNearPointerSet  5946
               03364 ;;      641
               03365 ;;      aopForRemat 425
               03366 ;;      446: rname _TRISB_bits, val 0, const = 0
               03367 ;; ***  genNearPointerSet  5963
               03368 ;;      858: aopGet AOP_PCODE type PO_IMMEDIATE
               03369 ;;      _TRISB_bits
               03370 ;;      line = 5965 result AOP_PCODE=_TRISB_bits, size=2, left -=-, size=0, right AOP_LIT=0x01, size=1
               03371 ;; gen.c:5694:genPackBits *{*
               03372 ;; ***  genPackBits  5695
               03373 ;;      858: aopGet AOP_PCODE type PO_IMMEDIATE
               03374 ;;      _TRISB_bits
               03375 ; >>> gen.c:5720:genPackBits
               03376         .line   42; "rfm12.c"   SDI_IN();
0232 1480      03377         BSF     _TRISB_bits,1
               03378 ;; gen.c:2261:resultRemat *{*
               03379 ;; gen.c:2261:resultRemat *{*
               03380 ;; gen.c:6117:genPointerSet *{*
               03381 ;; ***  genPointerSet  6118
               03382 ;; gen.c:5945:genNearPointerSet *{*
               03383 ;; ***  genNearPointerSet  5946
               03384 ;;      641
               03385 ;;      aopForRemat 425
               03386 ;;      446: rname _TRISB_bits, val 0, const = 0
               03387 ;; ***  genNearPointerSet  5963
               03388 ;;      858: aopGet AOP_PCODE type PO_IMMEDIATE
               03389 ;;      _TRISB_bits
               03390 ;;      line = 5965 result AOP_PCODE=_TRISB_bits, size=2, left -=-, size=0, right AOP_LIT=0x00, size=1
               03391 ;; gen.c:5694:genPackBits *{*
               03392 ;; ***  genPackBits  5695
               03393 ;;      858: aopGet AOP_PCODE type PO_IMMEDIATE
               03394 ;;      _TRISB_bits
               03395 ; >>> gen.c:5720:genPackBits
               03396         .line   43; "rfm12.c"   SDO_OUT();
0233 1100      03397         BCF     _TRISB_bits,2
               03398 ;; gen.c:2261:resultRemat *{*
gpasm-0.13.7 beta               rfm12.asm   8-8-2010  12:38:54           PAGE 64


LOC  OBJECT CODE     LINE SOURCE TEXT
  VALUE
 
               03399 ;; gen.c:2261:resultRemat *{*
               03400 ;; gen.c:6117:genPointerSet *{*
               03401 ;; ***  genPointerSet  6118
               03402 ;; gen.c:5945:genNearPointerSet *{*
               03403 ;; ***  genNearPointerSet  5946
               03404 ;;      641
               03405 ;;      aopForRemat 425
               03406 ;;      446: rname _TRISB_bits, val 0, const = 0
               03407 ;; ***  genNearPointerSet  5963
               03408 ;;      858: aopGet AOP_PCODE type PO_IMMEDIATE
               03409 ;;      _TRISB_bits
               03410 ;;      line = 5965 result AOP_PCODE=_TRISB_bits, size=2, left -=-, size=0, right AOP_LIT=0x00, size=1
               03411 ;; gen.c:5694:genPackBits *{*
               03412 ;; ***  genPackBits  5695
               03413 ;;      858: aopGet AOP_PCODE type PO_IMMEDIATE
               03414 ;;      _TRISB_bits
               03415 ; >>> gen.c:5720:genPackBits
               03416         .line   44; "rfm12.c"   SCK_OUT();
0234 1200      03417         BCF     _TRISB_bits,4
               03418 ;; gen.c:2261:resultRemat *{*
               03419 ;; gen.c:2261:resultRemat *{*
               03420 ;; gen.c:6117:genPointerSet *{*
               03421 ;; ***  genPointerSet  6118
               03422 ;; gen.c:5945:genNearPointerSet *{*
               03423 ;; ***  genNearPointerSet  5946
               03424 ;;      641
               03425 ;;      aopForRemat 425
               03426 ;;      446: rname _TRISB_bits, val 0, const = 0
               03427 ;; ***  genNearPointerSet  5963
               03428 ;;      858: aopGet AOP_PCODE type PO_IMMEDIATE
               03429 ;;      _TRISB_bits
               03430 ;;      line = 5965 result AOP_PCODE=_TRISB_bits, size=2, left -=-, size=0, right AOP_LIT=0x01, size=1
               03431 ;; gen.c:5694:genPackBits *{*
               03432 ;; ***  genPackBits  5695
               03433 ;;      858: aopGet AOP_PCODE type PO_IMMEDIATE
               03434 ;;      _TRISB_bits
               03435 ; >>> gen.c:5720:genPackBits
               03436         .line   45; "rfm12.c"   nIRQ_IN();
0235 1400      03437         BSF     _TRISB_bits,0
               03438 ;; gen.c:2261:resultRemat *{*
               03439 ;; gen.c:2261:resultRemat *{*
               03440 ;; gen.c:6117:genPointerSet *{*
               03441 ;; ***  genPointerSet  6118
               03442 ;; gen.c:5945:genNearPointerSet *{*
               03443 ;; ***  genNearPointerSet  5946
               03444 ;;      641
               03445 ;;      aopForRemat 425
               03446 ;;      446: rname _PORTB_bits, val 0, const = 0
               03447 ;; ***  genNearPointerSet  5963
               03448 ;;      858: aopGet AOP_PCODE type PO_IMMEDIATE
               03449 ;;      _PORTB_bits
               03450 ;;      line = 5965 result AOP_PCODE=_PORTB_bits, size=2, left -=-, size=0, right AOP_LIT=0x01, size=1
               03451 ;; gen.c:5694:genPackBits *{*
               03452 ;; ***  genPackBits  5695
gpasm-0.13.7 beta               rfm12.asm   8-8-2010  12:38:54           PAGE 65


LOC  OBJECT CODE     LINE SOURCE TEXT
  VALUE
 
               03453 ;;      858: aopGet AOP_PCODE type PO_IMMEDIATE
               03454 ;;      _PORTB_bits
               03455 ; >>> gen.c:5720:genPackBits
               03456         .line   48; "rfm12.c"   nSEL=1;
0236 0000 0000 03457         BANKSEL _PORTB_bits
0238 1580      03458         BSF     _PORTB_bits,3
               03459 ;; gen.c:2261:resultRemat *{*
               03460 ;; gen.c:2261:resultRemat *{*
               03461 ;; gen.c:6117:genPointerSet *{*
               03462 ;; ***  genPointerSet  6118
               03463 ;; gen.c:5945:genNearPointerSet *{*
               03464 ;; ***  genNearPointerSet  5946
               03465 ;;      641
               03466 ;;      aopForRemat 425
               03467 ;;      446: rname _PORTB_bits, val 0, const = 0
               03468 ;; ***  genNearPointerSet  5963
               03469 ;;      858: aopGet AOP_PCODE type PO_IMMEDIATE
               03470 ;;      _PORTB_bits
               03471 ;;      line = 5965 result AOP_PCODE=_PORTB_bits, size=2, left -=-, size=0, right AOP_LIT=0x01, size=1
               03472 ;; gen.c:5694:genPackBits *{*
               03473 ;; ***  genPackBits  5695
               03474 ;;      858: aopGet AOP_PCODE type PO_IMMEDIATE
               03475 ;;      _PORTB_bits
               03476 ; >>> gen.c:5720:genPackBits
               03477         .line   49; "rfm12.c"   SDO=1;
0239 1500      03478         BSF     _PORTB_bits,2
               03479 ;; gen.c:2261:resultRemat *{*
               03480 ;; gen.c:2261:resultRemat *{*
               03481 ;; gen.c:6117:genPointerSet *{*
               03482 ;; ***  genPointerSet  6118
               03483 ;; gen.c:5945:genNearPointerSet *{*
               03484 ;; ***  genNearPointerSet  5946
               03485 ;;      641
               03486 ;;      aopForRemat 425
               03487 ;;      446: rname _PORTB_bits, val 0, const = 0
               03488 ;; ***  genNearPointerSet  5963
               03489 ;;      858: aopGet AOP_PCODE type PO_IMMEDIATE
               03490 ;;      _PORTB_bits
               03491 ;;      line = 5965 result AOP_PCODE=_PORTB_bits, size=2, left -=-, size=0, right AOP_LIT=0x00, size=1
               03492 ;; gen.c:5694:genPackBits *{*
               03493 ;; ***  genPackBits  5695
               03494 ;;      858: aopGet AOP_PCODE type PO_IMMEDIATE
               03495 ;;      _PORTB_bits
               03496 ; >>> gen.c:5720:genPackBits
               03497         .line   50; "rfm12.c"   SCK=0;
023A 1200      03498         BCF     _PORTB_bits,4
               03499 ;; gen.c:2261:resultRemat *{*
               03500 ;; gen.c:2261:resultRemat *{*
               03501 ;; gen.c:2030:genCall *{*
               03502 ;; ***  genCall  2032
               03503 ;; gen.c:1765:saveRegisters *{*
               03504 ;; ***  saveRegisters  1767
               03505 ;;      2079 left AOP_LIT
               03506 ;; gen.c:1324:mov2w_op *{*
gpasm-0.13.7 beta               rfm12.asm   8-8-2010  12:38:54           PAGE 66


LOC  OBJECT CODE     LINE SOURCE TEXT
  VALUE
 
               03507 ; >>> gen.c:1339:mov2w_op
               03508         .line   52; "rfm12.c"   d=rfm12_spi16(0x80e7);          // El, Ef, 11.5pF, 868MHz band
023B 30E7      03509         MOVLW   0xe7
               03510 ;;      2079 left AOP_LIT
               03511 ; >>> gen.c:2087:genCall
               03512 ;; ***  popRegFromIdx,1043  , rIdx=0x7f
023C 0080      03513         MOVWF   STK00
               03514 ;; gen.c:1324:mov2w_op *{*
               03515 ; >>> gen.c:1339:mov2w_op
023D 3080      03516         MOVLW   0x80
               03517 ; >>> gen.c:2116:genCall
023E 03518         PAGESEL _rfm12_spi16
               03519 ; >>> gen.c:2118:genCall
023E 2000      03520         CALL    _rfm12_spi16
               03521 ; >>> gen.c:2123:genCall
023F 03522         PAGESEL $
               03523 ;; gen.c:1809:unsaveRegisters *{*
               03524 ;; ***  unsaveRegisters  1811
               03525 ;; gen.c:2261:resultRemat *{*
               03526 ;; gen.c:2261:resultRemat *{*
               03527 ;; gen.c:2030:genCall *{*
               03528 ;; ***  genCall  2032
               03529 ;; gen.c:1765:saveRegisters *{*
               03530 ;; ***  saveRegisters  1767
               03531 ;;      2079 left AOP_LIT
               03532 ;; gen.c:1324:mov2w_op *{*
               03533 ; >>> gen.c:1339:mov2w_op
               03534         .line   53; "rfm12.c"   d=rfm12_spi16(0x82d9);          // !er, !ebb, Et, Es, Ex, !eb, !ew, Dc
023F 30D9      03535         MOVLW   0xd9
               03536 ;;      2079 left AOP_LIT
               03537 ; >>> gen.c:2087:genCall
               03538 ;; ***  popRegFromIdx,1043  , rIdx=0x7f
0240 0080      03539         MOVWF   STK00
               03540 ;; gen.c:1324:mov2w_op *{*
               03541 ; >>> gen.c:1339:mov2w_op
0241 3082      03542         MOVLW   0x82
               03543 ; >>> gen.c:2116:genCall
0242 03544         PAGESEL _rfm12_spi16
               03545 ; >>> gen.c:2118:genCall
0242 2000      03546         CALL    _rfm12_spi16
               03547 ; >>> gen.c:2123:genCall
0243 03548         PAGESEL $
               03549 ;; gen.c:1809:unsaveRegisters *{*
               03550 ;; ***  unsaveRegisters  1811
               03551 ;; gen.c:2261:resultRemat *{*
               03552 ;; gen.c:2261:resultRemat *{*
               03553 ;; gen.c:2030:genCall *{*
               03554 ;; ***  genCall  2032
               03555 ;; gen.c:1765:saveRegisters *{*
               03556 ;; ***  saveRegisters  1767
               03557 ;;      2079 left AOP_LIT
               03558 ;; gen.c:1324:mov2w_op *{*
               03559 ; >>> gen.c:1339:mov2w_op
               03560         .line   54; "rfm12.c"   d=rfm12_spi16(0xa67c);          // 434,15MHz/868,3MHz
gpasm-0.13.7 beta               rfm12.asm   8-8-2010  12:38:54           PAGE 67


LOC  OBJECT CODE     LINE SOURCE TEXT
  VALUE
 
0243 307C      03561         MOVLW   0x7c
               03562 ;;      2079 left AOP_LIT
               03563 ; >>> gen.c:2087:genCall
               03564 ;; ***  popRegFromIdx,1043  , rIdx=0x7f
0244 0080      03565         MOVWF   STK00
               03566 ;; gen.c:1324:mov2w_op *{*
               03567 ; >>> gen.c:1339:mov2w_op
0245 30A6      03568         MOVLW   0xa6
               03569 ; >>> gen.c:2116:genCall
0246 03570         PAGESEL _rfm12_spi16
               03571 ; >>> gen.c:2118:genCall
0246 2000      03572         CALL    _rfm12_spi16
               03573 ; >>> gen.c:2123:genCall
0247 03574         PAGESEL $
               03575 ;; gen.c:1809:unsaveRegisters *{*
               03576 ;; ***  unsaveRegisters  1811
               03577 ;; gen.c:2261:resultRemat *{*
               03578 ;; gen.c:2261:resultRemat *{*
               03579 ;; gen.c:2030:genCall *{*
               03580 ;; ***  genCall  2032
               03581 ;; gen.c:1765:saveRegisters *{*
               03582 ;; ***  saveRegisters  1767
               03583 ;;      2079 left AOP_LIT
               03584 ;; gen.c:1324:mov2w_op *{*
               03585 ; >>> gen.c:1339:mov2w_op
               03586         .line   55; "rfm12.c"   d=rfm12_spi16(0xc647);          // 4,8kbps
0247 3047      03587         MOVLW   0x47
               03588 ;;      2079 left AOP_LIT
               03589 ; >>> gen.c:2087:genCall
               03590 ;; ***  popRegFromIdx,1043  , rIdx=0x7f
0248 0080      03591         MOVWF   STK00
               03592 ;; gen.c:1324:mov2w_op *{*
               03593 ; >>> gen.c:1339:mov2w_op
0249 30C6      03594         MOVLW   0xc6
               03595 ; >>> gen.c:2116:genCall
024A 03596         PAGESEL _rfm12_spi16
               03597 ; >>> gen.c:2118:genCall
024A 2000      03598         CALL    _rfm12_spi16
               03599 ; >>> gen.c:2123:genCall
024B 03600         PAGESEL $
               03601 ;; gen.c:1809:unsaveRegisters *{*
               03602 ;; ***  unsaveRegisters  1811
               03603 ;; gen.c:2261:resultRemat *{*
               03604 ;; gen.c:2261:resultRemat *{*
               03605 ;; gen.c:2030:genCall *{*
               03606 ;; ***  genCall  2032
               03607 ;; gen.c:1765:saveRegisters *{*
               03608 ;; ***  saveRegisters  1767
               03609 ;;      2079 left AOP_LIT
               03610 ;; gen.c:1324:mov2w_op *{*
               03611 ; >>> gen.c:1339:mov2w_op
               03612         .line   56; "rfm12.c"   d=rfm12_spi16(0x94a0);          // Vdi, fast, 134kHz, 0db,-103dbm
024B 30A0      03613         MOVLW   0xa0
               03614 ;;      2079 left AOP_LIT
gpasm-0.13.7 beta               rfm12.asm   8-8-2010  12:38:54           PAGE 68


LOC  OBJECT CODE     LINE SOURCE TEXT
  VALUE
 
               03615 ; >>> gen.c:2087:genCall
               03616 ;; ***  popRegFromIdx,1043  , rIdx=0x7f
024C 0080      03617         MOVWF   STK00
               03618 ;; gen.c:1324:mov2w_op *{*
               03619 ; >>> gen.c:1339:mov2w_op
024D 3094      03620         MOVLW   0x94
               03621 ; >>> gen.c:2116:genCall
024E 03622         PAGESEL _rfm12_spi16
               03623 ; >>> gen.c:2118:genCall
024E 2000      03624         CALL    _rfm12_spi16
               03625 ; >>> gen.c:2123:genCall
024F 03626         PAGESEL $
               03627 ;; gen.c:1809:unsaveRegisters *{*
               03628 ;; ***  unsaveRegisters  1811
               03629 ;; gen.c:2261:resultRemat *{*
               03630 ;; gen.c:2261:resultRemat *{*
               03631 ;; gen.c:2030:genCall *{*
               03632 ;; ***  genCall  2032
               03633 ;; gen.c:1765:saveRegisters *{*
               03634 ;; ***  saveRegisters  1767
               03635 ;;      2079 left AOP_LIT
               03636 ;; gen.c:1324:mov2w_op *{*
               03637 ; >>> gen.c:1339:mov2w_op
               03638         .line   57; "rfm12.c"   d=rfm12_spi16(0xc2ac);          // Al, !ml, Dig, Dqd4
024F 30AC      03639         MOVLW   0xac
               03640 ;;      2079 left AOP_LIT
               03641 ; >>> gen.c:2087:genCall
               03642 ;; ***  popRegFromIdx,1043  , rIdx=0x7f
0250 0080      03643         MOVWF   STK00
               03644 ;; gen.c:1324:mov2w_op *{*
               03645 ; >>> gen.c:1339:mov2w_op
0251 30C2      03646         MOVLW   0xc2
               03647 ; >>> gen.c:2116:genCall
0252 03648         PAGESEL _rfm12_spi16
               03649 ; >>> gen.c:2118:genCall
0252 2000      03650         CALL    _rfm12_spi16
               03651 ; >>> gen.c:2123:genCall
0253 03652         PAGESEL $
               03653 ;; gen.c:1809:unsaveRegisters *{*
               03654 ;; ***  unsaveRegisters  1811
               03655 ;; gen.c:2261:resultRemat *{*
               03656 ;; gen.c:2261:resultRemat *{*
               03657 ;; gen.c:2030:genCall *{*
               03658 ;; ***  genCall  2032
               03659 ;; gen.c:1765:saveRegisters *{*
               03660 ;; ***  saveRegisters  1767
               03661 ;;      2079 left AOP_LIT
               03662 ;; gen.c:1324:mov2w_op *{*
               03663 ; >>> gen.c:1339:mov2w_op
               03664         .line   58; "rfm12.c"   d=rfm12_spi16(0xca80);          // fifo8, sync, !ff, Dr
0253 3080      03665         MOVLW   0x80
               03666 ;;      2079 left AOP_LIT
               03667 ; >>> gen.c:2087:genCall
               03668 ;; ***  popRegFromIdx,1043  , rIdx=0x7f
gpasm-0.13.7 beta               rfm12.asm   8-8-2010  12:38:54           PAGE 69


LOC  OBJECT CODE     LINE SOURCE TEXT
  VALUE
 
0254 0080      03669         MOVWF   STK00
               03670 ;; gen.c:1324:mov2w_op *{*
               03671 ; >>> gen.c:1339:mov2w_op
0255 30CA      03672         MOVLW   0xca
               03673 ; >>> gen.c:2116:genCall
0256 03674         PAGESEL _rfm12_spi16
               03675 ; >>> gen.c:2118:genCall
0256 2000      03676         CALL    _rfm12_spi16
               03677 ; >>> gen.c:2123:genCall
0257 03678         PAGESEL $
               03679 ;; gen.c:1809:unsaveRegisters *{*
               03680 ;; ***  unsaveRegisters  1811
               03681 ;; gen.c:2261:resultRemat *{*
               03682 ;; gen.c:2261:resultRemat *{*
               03683 ;; gen.c:2030:genCall *{*
               03684 ;; ***  genCall  2032
               03685 ;; gen.c:1765:saveRegisters *{*
               03686 ;; ***  saveRegisters  1767
               03687 ;;      2079 left AOP_LIT
               03688 ;; gen.c:1324:mov2w_op *{*
               03689 ; >>> gen.c:1339:mov2w_op
               03690         .line   59; "rfm12.c"   d=rfm12_spi16(0xca83);          // fifo8, sync, !ff, Dr
0257 3083      03691         MOVLW   0x83
               03692 ;;      2079 left AOP_LIT
               03693 ; >>> gen.c:2087:genCall
               03694 ;; ***  popRegFromIdx,1043  , rIdx=0x7f
0258 0080      03695         MOVWF   STK00
               03696 ;; gen.c:1324:mov2w_op *{*
               03697 ; >>> gen.c:1339:mov2w_op
0259 30CA      03698         MOVLW   0xca
               03699 ; >>> gen.c:2116:genCall
025A 03700         PAGESEL _rfm12_spi16
               03701 ; >>> gen.c:2118:genCall
025A 2000      03702         CALL    _rfm12_spi16
               03703 ; >>> gen.c:2123:genCall
025B 03704         PAGESEL $
               03705 ;; gen.c:1809:unsaveRegisters *{*
               03706 ;; ***  unsaveRegisters  1811
               03707 ;; gen.c:2261:resultRemat *{*
               03708 ;; gen.c:2261:resultRemat *{*
               03709 ;; gen.c:2030:genCall *{*
               03710 ;; ***  genCall  2032
               03711 ;; gen.c:1765:saveRegisters *{*
               03712 ;; ***  saveRegisters  1767
               03713 ;;      2079 left AOP_LIT
               03714 ;; gen.c:1324:mov2w_op *{*
               03715 ; >>> gen.c:1339:mov2w_op
               03716         .line   60; "rfm12.c"   d=rfm12_spi16(0xc483);          // @pwr, no restrict, !st, !fi, Oe, En
025B 3083      03717         MOVLW   0x83
               03718 ;;      2079 left AOP_LIT
               03719 ; >>> gen.c:2087:genCall
               03720 ;; ***  popRegFromIdx,1043  , rIdx=0x7f
025C 0080      03721         MOVWF   STK00
               03722 ;; gen.c:1324:mov2w_op *{*
gpasm-0.13.7 beta               rfm12.asm   8-8-2010  12:38:54           PAGE 70


LOC  OBJECT CODE     LINE SOURCE TEXT
  VALUE
 
               03723 ; >>> gen.c:1339:mov2w_op
025D 30C4      03724         MOVLW   0xc4
               03725 ; >>> gen.c:2116:genCall
025E 03726         PAGESEL _rfm12_spi16
               03727 ; >>> gen.c:2118:genCall
025E 2000      03728         CALL    _rfm12_spi16
               03729 ; >>> gen.c:2123:genCall
025F 03730         PAGESEL $
               03731 ;; gen.c:1809:unsaveRegisters *{*
               03732 ;; ***  unsaveRegisters  1811
               03733 ;; gen.c:2261:resultRemat *{*
               03734 ;; gen.c:2261:resultRemat *{*
               03735 ;; gen.c:2030:genCall *{*
               03736 ;; ***  genCall  2032
               03737 ;; gen.c:1765:saveRegisters *{*
               03738 ;; ***  saveRegisters  1767
               03739 ;;      2079 left AOP_LIT
               03740 ;; gen.c:1324:mov2w_op *{*
               03741 ; >>> gen.c:1339:mov2w_op
               03742         .line   62; "rfm12.c"   d=rfm12_spi16(0x9850);          // 90kHz, power - 0db
025F 3050      03743         MOVLW   0x50
               03744 ;;      2079 left AOP_LIT
               03745 ; >>> gen.c:2087:genCall
               03746 ;; ***  popRegFromIdx,1043  , rIdx=0x7f
0260 0080      03747         MOVWF   STK00
               03748 ;; gen.c:1324:mov2w_op *{*
               03749 ; >>> gen.c:1339:mov2w_op
0261 3098      03750         MOVLW   0x98
               03751 ; >>> gen.c:2116:genCall
0262 03752         PAGESEL _rfm12_spi16
               03753 ; >>> gen.c:2118:genCall
0262 2000      03754         CALL    _rfm12_spi16
               03755 ; >>> gen.c:2123:genCall
0263 03756         PAGESEL $
               03757 ;; gen.c:1809:unsaveRegisters *{*
               03758 ;; ***  unsaveRegisters  1811
               03759 ;; gen.c:2261:resultRemat *{*
               03760 ;; gen.c:2261:resultRemat *{*
               03761 ;; gen.c:2030:genCall *{*
               03762 ;; ***  genCall  2032
               03763 ;; gen.c:1765:saveRegisters *{*
               03764 ;; ***  saveRegisters  1767
               03765 ;;      2079 left AOP_LIT
               03766 ;; gen.c:1324:mov2w_op *{*
               03767 ; >>> gen.c:1339:mov2w_op
               03768         .line   64; "rfm12.c"   d=rfm12_spi16(0xe000);          // not used (wake-up timer cmd)
0263 3000      03769         MOVLW   0x00
               03770 ;;      2079 left AOP_LIT
               03771 ; >>> gen.c:2087:genCall
               03772 ;; ***  popRegFromIdx,1043  , rIdx=0x7f
0264 0080      03773         MOVWF   STK00
               03774 ;; gen.c:1324:mov2w_op *{*
               03775 ; >>> gen.c:1339:mov2w_op
0265 30E0      03776         MOVLW   0xe0
gpasm-0.13.7 beta               rfm12.asm   8-8-2010  12:38:54           PAGE 71


LOC  OBJECT CODE     LINE SOURCE TEXT
  VALUE
 
               03777 ; >>> gen.c:2116:genCall
0266 03778         PAGESEL _rfm12_spi16
               03779 ; >>> gen.c:2118:genCall
0266 2000      03780         CALL    _rfm12_spi16
               03781 ; >>> gen.c:2123:genCall
0267 03782         PAGESEL $
               03783 ;; gen.c:1809:unsaveRegisters *{*
               03784 ;; ***  unsaveRegisters  1811
               03785 ;; gen.c:2261:resultRemat *{*
               03786 ;; gen.c:2261:resultRemat *{*
               03787 ;; gen.c:2030:genCall *{*
               03788 ;; ***  genCall  2032
               03789 ;; gen.c:1765:saveRegisters *{*
               03790 ;; ***  saveRegisters  1767
               03791 ;;      2079 left AOP_LIT
               03792 ;; gen.c:1324:mov2w_op *{*
               03793 ; >>> gen.c:1339:mov2w_op
               03794         .line   65; "rfm12.c"   d=rfm12_spi16(0xc800);          // not used (low duty-cycle cmd)
0267 3000      03795         MOVLW   0x00
               03796 ;;      2079 left AOP_LIT
               03797 ; >>> gen.c:2087:genCall
               03798 ;; ***  popRegFromIdx,1043  , rIdx=0x7f
0268 0080      03799         MOVWF   STK00
               03800 ;; gen.c:1324:mov2w_op *{*
               03801 ; >>> gen.c:1339:mov2w_op
0269 30C8      03802         MOVLW   0xc8
               03803 ; >>> gen.c:2116:genCall
026A 03804         PAGESEL _rfm12_spi16
               03805 ; >>> gen.c:2118:genCall
026A 2000      03806         CALL    _rfm12_spi16
               03807 ; >>> gen.c:2123:genCall
026B 03808         PAGESEL $
               03809 ;; gen.c:1809:unsaveRegisters *{*
               03810 ;; ***  unsaveRegisters  1811
               03811 ;; gen.c:2261:resultRemat *{*
               03812 ;; gen.c:2261:resultRemat *{*
               03813 ;; gen.c:2030:genCall *{*
               03814 ;; ***  genCall  2032
               03815 ;; gen.c:1765:saveRegisters *{*
               03816 ;; ***  saveRegisters  1767
               03817 ;;      2079 left AOP_LIT
               03818 ;; gen.c:1324:mov2w_op *{*
               03819 ; >>> gen.c:1339:mov2w_op
               03820         .line   67; "rfm12.c"   d=rfm12_spi16(0xc000);          // 1MHz, 2.2V (low bat detector and clk div)
026B 3000      03821         MOVLW   0x00
               03822 ;;      2079 left AOP_LIT
               03823 ; >>> gen.c:2087:genCall
               03824 ;; ***  popRegFromIdx,1043  , rIdx=0x7f
026C 0080      03825         MOVWF   STK00
               03826 ;; gen.c:1324:mov2w_op *{*
               03827 ; >>> gen.c:1339:mov2w_op
026D 30C0      03828         MOVLW   0xc0
               03829 ; >>> gen.c:2116:genCall
026E 03830         PAGESEL _rfm12_spi16
gpasm-0.13.7 beta               rfm12.asm   8-8-2010  12:38:54           PAGE 72


LOC  OBJECT CODE     LINE SOURCE TEXT
  VALUE
 
               03831 ; >>> gen.c:2118:genCall
026E 2000      03832         CALL    _rfm12_spi16
               03833 ; >>> gen.c:2123:genCall
026F 03834         PAGESEL $
               03835 ;; gen.c:1809:unsaveRegisters *{*
               03836 ;; ***  unsaveRegisters  1811
               03837 ;; gen.c:2261:resultRemat *{*
               03838 ;; gen.c:2261:resultRemat *{*
               03839 ;; gen.c:2030:genCall *{*
               03840 ;; ***  genCall  2032
               03841 ;; gen.c:1765:saveRegisters *{*
               03842 ;; ***  saveRegisters  1767
               03843 ;;      2079 left AOP_LIT
               03844 ;; gen.c:1324:mov2w_op *{*
               03845 ; >>> gen.c:1339:mov2w_op
               03846         .line   68; "rfm12.c"   d=rfm12_spi16(0x0000);          // read status word to clear fifos
026F 3000      03847         MOVLW   0x00
               03848 ;;      2079 left AOP_LIT
               03849 ; >>> gen.c:2087:genCall
               03850 ;; ***  popRegFromIdx,1043  , rIdx=0x7f
0270 0080      03851         MOVWF   STK00
               03852 ;; gen.c:1324:mov2w_op *{*
               03853 ; >>> gen.c:1339:mov2w_op
0271 3000      03854         MOVLW   0x00
               03855 ; >>> gen.c:2116:genCall
0272 03856         PAGESEL _rfm12_spi16
               03857 ; >>> gen.c:2118:genCall
0272 2000      03858         CALL    _rfm12_spi16
               03859 ; >>> gen.c:2123:genCall
0273 03860         PAGESEL $
               03861 ;; gen.c:1809:unsaveRegisters *{*
               03862 ;; ***  unsaveRegisters  1811
               03863 ;; gen.c:2261:resultRemat *{*
               03864 ;; gen.c:2597:genLabel *{*
               03865 ;; ***  genLabel  2600
               03866 ;; gen.c:2261:resultRemat *{*
               03867 ;; gen.c:2435:genEndFunction *{*
               03868 ;; ***  genEndFunction  2437
0273 0008      03869         RETURN  
               03870 ; exit point of _rfm12_init
               03871 ;; gen.c:6803:genpic14Code *{*
               03872 
               03873 
               03874 ;       code size estimation:
               03875 ;         502+  165 =   667 instructions ( 1664 byte)
               03876 
gpasm-0.13.7 beta               rfm12.asm   8-8-2010  12:38:54           PAGE 73


SYMBOL TABLE
  LABEL                             VALUE 

ADEN                              00000003
BRGH                              00000002
C                                 00000000
C1INV                             00000004
C1OUT                             00000006
C2INV                             00000005
C2OUT                             00000007
CCP1CON                           00000017
CCP1IE                            00000002
CCP1IF                            00000002
CCP1M0                            00000000
CCP1M1                            00000001
CCP1M2                            00000002
CCP1M3                            00000003
CCP1X                             00000005
CCP1Y                             00000004
CCPR1H                            00000016
CCPR1L                            00000015
CIS                               00000003
CM0                               00000000
CM1                               00000001
CM2                               00000002
CMCON                             0000001F
CMIE                              00000006
CMIF                              00000006
CREN                              00000004
CSRC                              00000007
DC                                00000001
EEADR                             0000009B
EECON1                            0000009C
EECON2                            0000009D
EEDATA                            0000009A
EEIE                              00000007
EEIF                              00000007
F                                 00000001
FERR                              00000002
FSR                               00000004
GIE                               00000007
INDF                              00000000
INTCON                            0000000B
INTE                              00000004
INTEDG                            00000006
INTF                              00000001
IRP                               00000007
NOT_BO                            00000000
NOT_BOD                           00000000
NOT_BOR                           00000000
NOT_PD                            00000003
NOT_POR                           00000001
NOT_RBPU                          00000007
NOT_T1SYNC                        00000002
NOT_TO                            00000004
OERR                              00000001
gpasm-0.13.7 beta               rfm12.asm   8-8-2010  12:38:54           PAGE 74


LOC  OBJECT CODE     LINE SOURCE TEXT
  VALUE
 
OPTION_REG                        00000081
OSCF                              00000003
PCL                               00000002
PCLATH                            0000000A
PCON                              0000008E
PEIE                              00000006
PIE1                              0000008C
PIR1                              0000000C
PORTA                             00000005
PORTB                             00000006
PR2                               00000092
PS0                               00000000
PS1                               00000001
PS2                               00000002
PSA                               00000003
PSAVE                             00000000
RBIE                              00000003
RBIF                              00000000
RCIE                              00000005
RCIF                              00000005
RCREG                             0000001A
RCSTA                             00000018
RD                                00000000
RP0                               00000005
RP1                               00000006
RX9                               00000006
RX9D                              00000000
SPBRG                             00000099
SPEN                              00000007
SREN                              00000005
SSAVE                             00000000
STATUS                            00000003
STK00                             00000000
STK01                             00000000
STK02                             00000000
STK03                             00000000
STK04                             00000000
STK05                             00000000
STK06                             00000000
STK07                             00000000
STK08                             00000000
STK09                             00000000
STK10                             00000000
STK11                             00000000
STK12                             00000000
SYNC                              00000004
T0CS                              00000005
T0IE                              00000005
T0IF                              00000002
T0SE                              00000004
T1CKPS0                           00000004
T1CKPS1                           00000005
T1CON                             00000010
T1OSCEN                           00000003
gpasm-0.13.7 beta               rfm12.asm   8-8-2010  12:38:54           PAGE 75


LOC  OBJECT CODE     LINE SOURCE TEXT
  VALUE
 
T2CKPS0                           00000000
T2CKPS1                           00000001
T2CON                             00000012
TMR0                              00000001
TMR1CS                            00000001
TMR1H                             0000000F
TMR1IE                            00000000
TMR1IF                            00000000
TMR1L                             0000000E
TMR1ON                            00000000
TMR2                              00000011
TMR2IE                            00000001
TMR2IF                            00000001
TMR2ON                            00000002
TOUTPS0                           00000003
TOUTPS1                           00000004
TOUTPS2                           00000005
TOUTPS3                           00000006
TRISA                             00000085
TRISB                             00000086
TRMT                              00000001
TX9                               00000006
TX9D                              00000000
TXEN                              00000005
TXIE                              00000004
TXIF                              00000004
TXREG                             00000019
TXSTA                             00000098
VR0                               00000000
VR1                               00000001
VR2                               00000002
VR3                               00000003
VRCON                             0000009F
VREN                              00000007
VROE                              00000006
VRR                               00000005
W                                 00000000
WR                                00000001
WREN                              00000002
WRERR                             00000003
WSAVE                             00000000
Z                                 00000002
_00001_DS_                        00000028
_00002_DS_                        00000113
_00110_DS_                        0000013B
_00112_DS_                        0000014B
_00114_DS_                        0000015B
_00116_DS_                        0000016B
_00118_DS_                        0000017B
_00122_DS_                        000001C7
_00124_DS_                        000001F1
_00126_DS_                        00000201
_00128_DS_                        00000211
_00130_DS_                        00000221
gpasm-0.13.7 beta               rfm12.asm   8-8-2010  12:38:54           PAGE 76


LOC  OBJECT CODE     LINE SOURCE TEXT
  VALUE
 
_00131_DS_                        0000018E
_00134_DS_                        000001DC
_00135_DS_                        0000022E
_00145_DS_                        0000018B
_00150_DS_                        0000019D
_00156_DS_                        000000CA
_00158_DS_                        00000101
_00161_DS_                        00000118
_00164_DS_                        000000A4
_00167_DS_                        000000EC
_00168_DS_                        0000011D
_00178_DS_                        000000B3
_00179_DS_                        00000110
_00192_DS_                        00000059
_00196_DS_                        00000052
_00198_DS_                        0000006B
_00200_DS_                        00000077
_00202_DS_                        00000078
_00213_DS_                        00000069
_00214_DS_                        00000073
_00220_DS_                        00000019
_00221_DS_                        0000001C
_00224_DS_                        00000032
_00227_DS_                        0000000D
_00230_DS_                        0000003D
_BODEN_OFF                        00003FBF
_BODEN_ON                         00003FFF
_BOREN_OFF                        00003FBF
_BOREN_ON                         00003FFF
_CCP1CON                          00000000
_CCP1CON_bits                     00000000
_CCPR1H                           00000000
_CCPR1L                           00000000
_CMCON                            00000000
_CMCON_bits                       00000000
_CP_OFF                           00003FFF
_CP_ON                            00001FFF
_DATA_CP_OFF                      00003FFF
_DATA_CP_ON                       00003EFF
_EEADR                            00000000
_EECON1                           00000000
_EECON1_bits                      00000000
_EECON2                           00000000
_EEDATA                           00000000
_ER_OSC_CLKOUT                    00003FFF
_ER_OSC_NOCLKOUT                  00003FFE
_EXTCLK_OSC                       00003FEF
_FSR                              00000000
_HS_OSC                           00003FEE
_INDF                             00000000
_INTCON                           00000000
_INTCON_bits                      00000000
_INTOSC_OSC_CLKOUT                00003FFD
_INTOSC_OSC_NOCLKOUT              00003FFC
gpasm-0.13.7 beta               rfm12.asm   8-8-2010  12:38:54           PAGE 77


LOC  OBJECT CODE     LINE SOURCE TEXT
  VALUE
 
_INTRC_OSC_CLKOUT                 00003FFD
_INTRC_OSC_NOCLKOUT               00003FFC
_LP_OSC                           00003FEC
_LVP_OFF                          00003F7F
_LVP_ON                           00003FFF
_MCLRE_OFF                        00003FDF
_MCLRE_ON                         00003FFF
_OPTION_REG                       00000000
_OPTION_REG_bits                  00000000
_PCL                              00000000
_PCLATH                           00000000
_PCON                             00000000
_PCON_bits                        00000000
_PIE1                             00000000
_PIE1_bits                        00000000
_PIR1                             00000000
_PIR1_bits                        00000000
_PORTA                            00000000
_PORTA_bits                       00000000
_PORTB                            00000000
_PORTB_bits                       00000000
_PR2                              00000000
_PWRTE_OFF                        00003FFF
_PWRTE_ON                         00003FF7
_RCREG                            00000000
_RCSTA                            00000000
_RCSTA_bits                       00000000
_RC_OSC_CLKOUT                    00003FFF
_RC_OSC_NOCLKOUT                  00003FFE
_SPBRG                            00000000
_STATUS                           00000000
_STATUS_bits                      00000000
_T1CON                            00000000
_T1CON_bits                       00000000
_T2CON                            00000000
_T2CON_bits                       00000000
_TMR0                             00000000
_TMR1H                            00000000
_TMR1L                            00000000
_TMR2                             00000000
_TRISA                            00000000
_TRISA_bits                       00000000
_TRISB                            00000000
_TRISB_bits                       00000000
_TXREG                            00000000
_TXSTA                            00000000
_TXSTA_bits                       00000000
_VRCON                            00000000
_VRCON_bits                       00000000
_WDT_OFF                          00003FFB
_WDT_ON                           00003FFF
_XT_OSC                           00003FED
__16F628A                         00000001
__gptrget1                        00000000
gpasm-0.13.7 beta               rfm12.asm   8-8-2010  12:38:54           PAGE 78


LOC  OBJECT CODE     LINE SOURCE TEXT
  VALUE
 
__gptrput1                        00000000
_delay_ms                         00000000
_delay_s                          00000000
_eeprom_read                      00000000
_eeprom_write                     00000000
_rfm12_dis_rx                     00000079
_rfm12_ena_rx                     00000081
_rfm12_init                       0000022F
_rfm12_init_rx                    00000000
_rfm12_init_tx                    00000000
_rfm12_rcv_msg                    00000091
_rfm12_snd_msg                    0000011E
_rfm12_spi16                      00000000
_rfm12_wait                       00000046
r0x1000                           00000021
r0x1001                           00000020
r0x1002                           00000022
r0x1003                           00000023
r0x1004                           00000024
r0x1005                           00000025
r0x1006                           0000001C
r0x1007                           0000001B
r0x1008                           0000001D
r0x1009                           0000001E
r0x100A                           0000001F
r0x100B                           0000000F
r0x100C                           0000000E
r0x100D                           0000000D
r0x100E                           00000011
r0x100F                           00000010
r0x1010                           00000012
r0x1011                           00000013
r0x1012                           00000014
r0x1013                           00000015
r0x1014                           00000016
r0x1015                           00000017
r0x1016                           00000018
r0x1017                           00000019
r0x1018                           0000001A
r0x1019                           00000002
r0x101A                           00000001
r0x101B                           00000000
r0x101C                           00000004
r0x101D                           00000003
r0x101E                           00000005
r0x101F                           00000006
r0x1020                           00000007
r0x1021                           00000008
r0x1022                           00000009
r0x1023                           0000000B
r0x1024                           0000000A
r0x1027                           0000000C


Errors   :       0
Warnings :       0 reported,       0 suppressed
Messages :       0 reported,       0 suppressed

